---
triple:          'arm64-apple-darwin'
binary-path:     server
relocations:
  - { offsetInCU: 0x3F, offset: 0x3F, size: 0x8, addend: 0x0, symName: _g_debug, symObjAddr: 0x828C, symBinAddr: 0x100010000, symSize: 0x0 }
  - { offsetInCU: 0x611E, offset: 0x611E, size: 0x8, addend: 0x0, symName: __ZNSt3__16copy_nB8ue170006IPKcmPcEENS_9enable_ifIXsr37__has_random_access_iterator_categoryIT_EE5valueET1_E4typeES5_T0_S6_, symObjAddr: 0x6ECC, symBinAddr: 0x100009FA4, symSize: 0x44 }
  - { offsetInCU: 0x70A0, offset: 0x70A0, size: 0x8, addend: 0x0, symName: __ZNSt3__1neB8ue170006IP10ClientInfoEEbRKNS_11__wrap_iterIT_EES7_, symObjAddr: 0x19EC, symBinAddr: 0x100004AC4, symSize: 0x34 }
  - { offsetInCU: 0x70E3, offset: 0x70E3, size: 0x8, addend: 0x0, symName: __ZNSt3__16removeB8ue170006INS_11__wrap_iterIPcEEcEET_S4_S4_RKT0_, symObjAddr: 0x1B98, symBinAddr: 0x100004C70, symSize: 0x108 }
  - { offsetInCU: 0x7175, offset: 0x7175, size: 0x8, addend: 0x0, symName: '__ZNSt3__17find_ifB8ue170006INS_11__wrap_iterIP10ClientInfoEEZ4mainE3$_0EET_S6_S6_T0_', symObjAddr: 0x1E40, symBinAddr: 0x100004F18, symSize: 0x7C }
  - { offsetInCU: 0x71CF, offset: 0x71CF, size: 0x8, addend: 0x0, symName: __ZNSt3__1eqB8ue170006IP10ClientInfoEEbRKNS_11__wrap_iterIT_EES7_, symObjAddr: 0x1EBC, symBinAddr: 0x100004F94, symSize: 0x48 }
  - { offsetInCU: 0x7212, offset: 0x7212, size: 0x8, addend: 0x0, symName: __ZNSt3__1eqB8ue170006IcNS_11char_traitsIcEENS_9allocatorIcEEEEbRKNS_12basic_stringIT_T0_T1_EEPKS6_, symObjAddr: 0x1F54, symBinAddr: 0x10000502C, symSize: 0xAC }
  - { offsetInCU: 0x7279, offset: 0x7279, size: 0x8, addend: 0x0, symName: __ZNSt3__1plB8ue170006IcNS_11char_traitsIcEENS_9allocatorIcEEEENS_12basic_stringIT_T0_T1_EEOS9_PKS6_, symObjAddr: 0x2000, symBinAddr: 0x1000050D8, symSize: 0x40 }
  - { offsetInCU: 0x72D1, offset: 0x72D1, size: 0x8, addend: 0x0, symName: __ZNSt3__1plB8ue170006IcNS_11char_traitsIcEENS_9allocatorIcEEEENS_12basic_stringIT_T0_T1_EEOS9_SA_, symObjAddr: 0x211C, symBinAddr: 0x1000051F4, symSize: 0x40 }
  - { offsetInCU: 0x7329, offset: 0x7329, size: 0x8, addend: 0x0, symName: __ZNSt3__1plB8ue170006IcNS_11char_traitsIcEENS_9allocatorIcEEEENS_12basic_stringIT_T0_T1_EERKS9_PKS6_, symObjAddr: 0x215C, symBinAddr: 0x100005234, symSize: 0x11C }
  - { offsetInCU: 0x73CA, offset: 0x73CA, size: 0x8, addend: 0x0, symName: __ZNSt3__1plB8ue170006IcNS_11char_traitsIcEENS_9allocatorIcEEEENS_12basic_stringIT_T0_T1_EEOS9_RKS9_, symObjAddr: 0x22AC, symBinAddr: 0x100005384, symSize: 0x40 }
  - { offsetInCU: 0x7422, offset: 0x7422, size: 0x8, addend: 0x0, symName: '__ZNSt3__17find_ifB8ue170006INS_11__wrap_iterIP10ClientInfoEEZ4mainE3$_1EET_S6_S6_T0_', symObjAddr: 0x22EC, symBinAddr: 0x1000053C4, symSize: 0x7C }
  - { offsetInCU: 0x747C, offset: 0x747C, size: 0x8, addend: 0x0, symName: __ZNSt3__112__to_addressB8ue170006IKcEEPT_S3_, symObjAddr: 0x2530, symBinAddr: 0x100005608, symSize: 0x14 }
  - { offsetInCU: 0x74E4, offset: 0x74E4, size: 0x8, addend: 0x0, symName: __ZNSt3__112__to_addressB8ue170006I10ClientInfoEEPT_S3_, symObjAddr: 0x2B24, symBinAddr: 0x100005BFC, symSize: 0x14 }
  - { offsetInCU: 0x7519, offset: 0x7519, size: 0x8, addend: 0x0, symName: __ZNSt3__119__libcpp_deallocateB8ue170006EPvmm, symObjAddr: 0x2BE8, symBinAddr: 0x100005CC0, symSize: 0x30 }
  - { offsetInCU: 0x7561, offset: 0x7561, size: 0x8, addend: 0x0, symName: __ZNSt3__127__do_deallocate_handle_sizeB8ue170006IJEEEvPvmDpT_, symObjAddr: 0x2C18, symBinAddr: 0x100005CF0, symSize: 0x28 }
  - { offsetInCU: 0x759F, offset: 0x759F, size: 0x8, addend: 0x0, symName: __ZNSt3__124__libcpp_operator_deleteB8ue170006IJPvEEEvDpT_, symObjAddr: 0x2C40, symBinAddr: 0x100005D18, symSize: 0x24 }
  - { offsetInCU: 0x75D4, offset: 0x75D4, size: 0x8, addend: 0x0, symName: __ZNSt3__112__to_addressB8ue170006I6pollfdEEPT_S3_, symObjAddr: 0x31A8, symBinAddr: 0x100006280, symSize: 0x14 }
  - { offsetInCU: 0x7609, offset: 0x7609, size: 0x8, addend: 0x0, symName: __ZNSt3__13maxB8ue170006ImEERKT_S3_S3_, symObjAddr: 0x3890, symBinAddr: 0x100006968, symSize: 0x2C }
  - { offsetInCU: 0x764C, offset: 0x764C, size: 0x8, addend: 0x0, symName: __ZNSt3__13minB8ue170006ImEERKT_S3_S3_, symObjAddr: 0x38BC, symBinAddr: 0x100006994, symSize: 0x2C }
  - { offsetInCU: 0x7890, offset: 0x7890, size: 0x8, addend: 0x0, symName: __ZNSt3__13minB8ue170006ImNS_6__lessIvvEEEERKT_S5_S5_T0_, symObjAddr: 0x3948, symBinAddr: 0x100006A20, symSize: 0x54 }
  - { offsetInCU: 0x792F, offset: 0x792F, size: 0x8, addend: 0x0, symName: __ZNSt3__120__throw_length_errorB8ue170006EPKc, symObjAddr: 0x3A24, symBinAddr: 0x100006AFC, symSize: 0x64 }
  - { offsetInCU: 0x7959, offset: 0x7959, size: 0x8, addend: 0x0, symName: __ZNSt3__13maxB8ue170006ImNS_6__lessIvvEEEERKT_S5_S5_T0_, symObjAddr: 0x3B08, symBinAddr: 0x100006BE0, symSize: 0x54 }
  - { offsetInCU: 0x79B3, offset: 0x79B3, size: 0x8, addend: 0x0, symName: __ZNSt3__119__allocate_at_leastB8ue170006INS_9allocatorI6pollfdEEEENS_19__allocation_resultINS_16allocator_traitsIT_E7pointerEEERS6_m, symObjAddr: 0x3C6C, symBinAddr: 0x100006D44, symSize: 0x40 }
  - { offsetInCU: 0x79F6, offset: 0x79F6, size: 0x8, addend: 0x0, symName: __ZNSt3__117__libcpp_allocateB8ue170006Emm, symObjAddr: 0x3DF0, symBinAddr: 0x100006EC8, symSize: 0x28 }
  - { offsetInCU: 0x7A33, offset: 0x7A33, size: 0x8, addend: 0x0, symName: __ZNSt3__121__libcpp_operator_newB8ue170006IJmEEEPvDpT_, symObjAddr: 0x3E18, symBinAddr: 0x100006EF0, symSize: 0x24 }
  - { offsetInCU: 0x7A6C, offset: 0x7A6C, size: 0x8, addend: 0x0, symName: __ZNSt3__142__uninitialized_allocator_move_if_noexceptB8ue170006INS_9allocatorI6pollfdEENS_16reverse_iteratorIPS2_EES6_S2_vEET1_RT_T0_SA_S7_, symObjAddr: 0x3EA0, symBinAddr: 0x100006F78, symSize: 0x78 }
  - { offsetInCU: 0x7AE9, offset: 0x7AE9, size: 0x8, addend: 0x0, symName: __ZNSt3__14swapB8ue170006IP6pollfdEENS_9enable_ifIXaasr21is_move_constructibleIT_EE5valuesr18is_move_assignableIS4_EE5valueEvE4typeERS4_S7_, symObjAddr: 0x3F64, symBinAddr: 0x10000703C, symSize: 0x3C }
  - { offsetInCU: 0x7B3A, offset: 0x7B3A, size: 0x8, addend: 0x0, symName: __ZNSt3__14moveB8ue170006INS_16reverse_iteratorIP6pollfdEES4_EET0_T_S6_S5_, symObjAddr: 0x404C, symBinAddr: 0x100007124, symSize: 0x78 }
  - { offsetInCU: 0x7B94, offset: 0x7B94, size: 0x8, addend: 0x0, symName: __ZNSt3__16__moveB8ue170006INS_17_ClassicAlgPolicyENS_16reverse_iteratorIP6pollfdEES5_S5_EENS_4pairIT0_T2_EES7_T1_S8_, symObjAddr: 0x40C4, symBinAddr: 0x10000719C, symSize: 0x64 }
  - { offsetInCU: 0x7C00, offset: 0x7C00, size: 0x8, addend: 0x0, symName: __ZNSt3__123__dispatch_copy_or_moveB8ue170006INS_17_ClassicAlgPolicyENS_11__move_loopIS1_EENS_14__move_trivialENS_16reverse_iteratorIP6pollfdEES8_S8_EENS_4pairIT2_T4_EESA_T3_SB_, symObjAddr: 0x4128, symBinAddr: 0x100007200, symSize: 0x64 }
  - { offsetInCU: 0x7C7E, offset: 0x7C7E, size: 0x8, addend: 0x0, symName: __ZNSt3__121__unwrap_and_dispatchB8ue170006INS_10__overloadINS_11__move_loopINS_17_ClassicAlgPolicyEEENS_14__move_trivialEEENS_16reverse_iteratorIP6pollfdEESA_SA_Li0EEENS_4pairIT0_T2_EESC_T1_SD_, symObjAddr: 0x418C, symBinAddr: 0x100007264, symSize: 0x12C }
  - { offsetInCU: 0x7D0E, offset: 0x7D0E, size: 0x8, addend: 0x0, symName: __ZNSt3__114__unwrap_rangeB8ue170006INS_16reverse_iteratorIP6pollfdEES4_EENS_4pairIT0_S6_EET_S8_, symObjAddr: 0x42B8, symBinAddr: 0x100007390, symSize: 0x84 }
  - { offsetInCU: 0x7EC8, offset: 0x7EC8, size: 0x8, addend: 0x0, symName: __ZNSt3__113__unwrap_iterB8ue170006INS_16reverse_iteratorIP6pollfdEENS_18__unwrap_iter_implIS4_Lb0EEELi0EEEDTclsrT0_8__unwrapclsr3stdE7declvalIT_EEEES8_, symObjAddr: 0x43DC, symBinAddr: 0x1000074B4, symSize: 0x44 }
  - { offsetInCU: 0x7F0C, offset: 0x7F0C, size: 0x8, addend: 0x0, symName: __ZNSt3__19make_pairB8ue170006INS_16reverse_iteratorIP6pollfdEES4_EENS_4pairINS_18__unwrap_ref_decayIT_E4typeENS6_IT0_E4typeEEEOS7_OSA_, symObjAddr: 0x4420, symBinAddr: 0x1000074F8, symSize: 0x38 }
  - { offsetInCU: 0x7F5B, offset: 0x7F5B, size: 0x8, addend: 0x0, symName: __ZNSt3__114__rewrap_rangeB8ue170006INS_16reverse_iteratorIP6pollfdEES4_EET_S5_T0_, symObjAddr: 0x4458, symBinAddr: 0x100007530, symSize: 0x5C }
  - { offsetInCU: 0x7FA7, offset: 0x7FA7, size: 0x8, addend: 0x0, symName: __ZNSt3__113__rewrap_iterB8ue170006INS_16reverse_iteratorIP6pollfdEES4_NS_18__unwrap_iter_implIS4_Lb0EEEEET_S7_T0_, symObjAddr: 0x44B4, symBinAddr: 0x10000758C, symSize: 0x74 }
  - { offsetInCU: 0x7FFC, offset: 0x7FFC, size: 0x8, addend: 0x0, symName: __ZNSt3__1neB8ue170006IP6pollfdS2_EEbRKNS_16reverse_iteratorIT_EERKNS3_IT0_EE, symObjAddr: 0x4528, symBinAddr: 0x100007600, symSize: 0x48 }
  - { offsetInCU: 0x812D, offset: 0x812D, size: 0x8, addend: 0x0, symName: __ZNSt3__118__constexpr_strlenB8ue170006EPKc, symObjAddr: 0x4AC0, symBinAddr: 0x100007B98, symSize: 0x24 }
  - { offsetInCU: 0x8197, offset: 0x8197, size: 0x8, addend: 0x0, symName: __ZNSt3__14findB8ue170006INS_11__wrap_iterIPcEEcEET_S4_S4_RKT0_, symObjAddr: 0x4C58, symBinAddr: 0x100007D30, symSize: 0x78 }
  - { offsetInCU: 0x81FF, offset: 0x81FF, size: 0x8, addend: 0x0, symName: __ZNSt3__1neB8ue170006IPcEEbRKNS_11__wrap_iterIT_EES6_, symObjAddr: 0x4CD0, symBinAddr: 0x100007DA8, symSize: 0x34 }
  - { offsetInCU: 0x8242, offset: 0x8242, size: 0x8, addend: 0x0, symName: __ZNSt3__113__rewrap_iterB8ue170006INS_11__wrap_iterIPcEES2_NS_18__unwrap_iter_implIS3_Lb1EEEEET_S6_T0_, symObjAddr: 0x4D3C, symBinAddr: 0x100007E14, symSize: 0x4C }
  - { offsetInCU: 0x8297, offset: 0x8297, size: 0x8, addend: 0x0, symName: __ZNSt3__111__find_implB8ue170006IccNS_10__identityELi0EEEPT_S3_S3_RKT0_RT1_, symObjAddr: 0x4D88, symBinAddr: 0x100007E60, symSize: 0x78 }
  - { offsetInCU: 0x831E, offset: 0x831E, size: 0x8, addend: 0x0, symName: __ZNSt3__113__unwrap_iterB8ue170006INS_11__wrap_iterIPcEENS_18__unwrap_iter_implIS3_Lb1EEELi0EEEDTclsrT0_8__unwrapclsr3stdE7declvalIT_EEEES7_, symObjAddr: 0x4E00, symBinAddr: 0x100007ED8, symSize: 0x2C }
  - { offsetInCU: 0x83B5, offset: 0x83B5, size: 0x8, addend: 0x0, symName: __ZNSt3__112__to_addressB8ue170006INS_11__wrap_iterIPcEEvEEu7__decayIDTclsr19__to_address_helperIT_EE6__callclsr3stdE7declvalIRKS4_EEEEES6_, symObjAddr: 0x4EBC, symBinAddr: 0x100007F94, symSize: 0x24 }
  - { offsetInCU: 0x8452, offset: 0x8452, size: 0x8, addend: 0x0, symName: __ZNSt3__112__to_addressB8ue170006IcEEPT_S2_, symObjAddr: 0x4F64, symBinAddr: 0x10000803C, symSize: 0x14 }
  - { offsetInCU: 0x8487, offset: 0x8487, size: 0x8, addend: 0x0, symName: __ZNSt3__118__constexpr_memchrB8ue170006IccEEPT_S2_T0_m, symObjAddr: 0x4F90, symBinAddr: 0x100008068, symSize: 0x40 }
  - { offsetInCU: 0x84FD, offset: 0x84FD, size: 0x8, addend: 0x0, symName: __ZNSt3__1eqB8ue170006IPcEEbRKNS_11__wrap_iterIT_EES6_, symObjAddr: 0x4FF8, symBinAddr: 0x1000080D0, symSize: 0x48 }
  - { offsetInCU: 0x8540, offset: 0x8540, size: 0x8, addend: 0x0, symName: __ZNSt3__1miB8ue170006IPKcPcEEDTmicldtfp_4baseEcldtfp0_4baseEERKNS_11__wrap_iterIT_EERKNS5_IT0_EE, symObjAddr: 0x5040, symBinAddr: 0x100008118, symSize: 0x40 }
  - { offsetInCU: 0x858C, offset: 0x858C, size: 0x8, addend: 0x0, symName: __ZNSt3__1miB8ue170006IPKcS2_EEDTmicldtfp_4baseEcldtfp0_4baseEERKNS_11__wrap_iterIT_EERKNS4_IT0_EE, symObjAddr: 0x5080, symBinAddr: 0x100008158, symSize: 0x40 }
  - { offsetInCU: 0x85D8, offset: 0x85D8, size: 0x8, addend: 0x0, symName: __ZNSt3__119__allocate_at_leastB8ue170006INS_9allocatorI10ClientInfoEEEENS_19__allocation_resultINS_16allocator_traitsIT_E7pointerEEERS6_m, symObjAddr: 0x596C, symBinAddr: 0x100008A44, symSize: 0x40 }
  - { offsetInCU: 0x861B, offset: 0x861B, size: 0x8, addend: 0x0, symName: __ZNSt3__142__uninitialized_allocator_move_if_noexceptB8ue170006INS_9allocatorI10ClientInfoEENS_16reverse_iteratorIPS2_EES6_S6_EET2_RT_T0_T1_S7_, symObjAddr: 0x5B20, symBinAddr: 0x100008BF8, symSize: 0x12C }
  - { offsetInCU: 0x86BB, offset: 0x86BB, size: 0x8, addend: 0x0, symName: __ZNSt3__14swapB8ue170006IP10ClientInfoEENS_9enable_ifIXaasr21is_move_constructibleIT_EE5valuesr18is_move_assignableIS4_EE5valueEvE4typeERS4_S7_, symObjAddr: 0x5C98, symBinAddr: 0x100008D70, symSize: 0x3C }
  - { offsetInCU: 0x870C, offset: 0x870C, size: 0x8, addend: 0x0, symName: __ZNSt3__122__make_exception_guardB8ue170006INS_29_AllocatorDestroyRangeReverseINS_9allocatorI10ClientInfoEENS_16reverse_iteratorIPS3_EEEEEENS_28__exception_guard_exceptionsIT_EESA_, symObjAddr: 0x5D80, symBinAddr: 0x100008E58, symSize: 0x4C }
  - { offsetInCU: 0x8742, offset: 0x8742, size: 0x8, addend: 0x0, symName: __ZNSt3__1neB8ue170006IP10ClientInfoS2_EEbRKNS_16reverse_iteratorIT_EERKNS3_IT0_EE, symObjAddr: 0x5E10, symBinAddr: 0x100008EE8, symSize: 0x48 }
  - { offsetInCU: 0x878E, offset: 0x878E, size: 0x8, addend: 0x0, symName: __ZNSt3__112__to_addressB8ue170006INS_16reverse_iteratorIP10ClientInfoEEvEEu7__decayIDTclsr19__to_address_helperIT_EE6__callclsr3stdE7declvalIRKS5_EEEEES7_, symObjAddr: 0x5E8C, symBinAddr: 0x100008F64, symSize: 0x24 }
  - { offsetInCU: 0x87ED, offset: 0x87ED, size: 0x8, addend: 0x0, symName: __ZNSt3__119__allocator_destroyB8ue170006INS_9allocatorI10ClientInfoEENS_16reverse_iteratorINS4_IPS2_EEEES7_EEvRT_T0_T1_, symObjAddr: 0x6264, symBinAddr: 0x10000933C, symSize: 0x70 }
  - { offsetInCU: 0x8852, offset: 0x8852, size: 0x8, addend: 0x0, symName: __ZNSt3__1neB8ue170006INS_16reverse_iteratorIP10ClientInfoEES4_EEbRKNS1_IT_EERKNS1_IT0_EE, symObjAddr: 0x6310, symBinAddr: 0x1000093E8, symSize: 0x60 }
  - { offsetInCU: 0x889E, offset: 0x889E, size: 0x8, addend: 0x0, symName: __ZNSt3__112__to_addressB8ue170006INS_16reverse_iteratorINS1_IP10ClientInfoEEEEvEEu7__decayIDTclsr19__to_address_helperIT_EE6__callclsr3stdE7declvalIRKS6_EEEEES8_, symObjAddr: 0x6370, symBinAddr: 0x100009448, symSize: 0x24 }
  - { offsetInCU: 0x8AFF, offset: 0x8AFF, size: 0x8, addend: 0x0, symName: __ZNSt3__14copyB8ue170006IPKcPcEET0_T_S5_S4_, symObjAddr: 0x6F10, symBinAddr: 0x100009FE8, symSize: 0x40 }
  - { offsetInCU: 0x8B59, offset: 0x8B59, size: 0x8, addend: 0x0, symName: __ZNSt3__16__copyB8ue170006INS_17_ClassicAlgPolicyEPKcS3_PcEENS_4pairIT0_T2_EES6_T1_S7_, symObjAddr: 0x6F50, symBinAddr: 0x10000A028, symSize: 0x44 }
  - { offsetInCU: 0x8BC5, offset: 0x8BC5, size: 0x8, addend: 0x0, symName: __ZNSt3__123__dispatch_copy_or_moveB8ue170006INS_17_ClassicAlgPolicyENS_11__copy_loopIS1_EENS_14__copy_trivialEPKcS6_PcEENS_4pairIT2_T4_EES9_T3_SA_, symObjAddr: 0x6F94, symBinAddr: 0x10000A06C, symSize: 0x44 }
  - { offsetInCU: 0x8C43, offset: 0x8C43, size: 0x8, addend: 0x0, symName: __ZNSt3__121__unwrap_and_dispatchB8ue170006INS_10__overloadINS_11__copy_loopINS_17_ClassicAlgPolicyEEENS_14__copy_trivialEEEPKcS8_PcLi0EEENS_4pairIT0_T2_EESB_T1_SC_, symObjAddr: 0x6FD8, symBinAddr: 0x10000A0B0, symSize: 0xB4 }
  - { offsetInCU: 0x8CD1, offset: 0x8CD1, size: 0x8, addend: 0x0, symName: __ZNSt3__114__unwrap_rangeB8ue170006IPKcS2_EENS_4pairIT0_S4_EET_S6_, symObjAddr: 0x708C, symBinAddr: 0x10000A164, symSize: 0x60 }
  - { offsetInCU: 0x8E66, offset: 0x8E66, size: 0x8, addend: 0x0, symName: __ZNSt3__113__unwrap_iterB8ue170006IPcNS_18__unwrap_iter_implIS1_Lb1EEELi0EEEDTclsrT0_8__unwrapclsr3stdE7declvalIT_EEEES5_, symObjAddr: 0x7134, symBinAddr: 0x10000A20C, symSize: 0x24 }
  - { offsetInCU: 0x8EAA, offset: 0x8EAA, size: 0x8, addend: 0x0, symName: __ZNSt3__19make_pairB8ue170006IPKcPcEENS_4pairINS_18__unwrap_ref_decayIT_E4typeENS5_IT0_E4typeEEEOS6_OS9_, symObjAddr: 0x7158, symBinAddr: 0x10000A230, symSize: 0x38 }
  - { offsetInCU: 0x8EF9, offset: 0x8EF9, size: 0x8, addend: 0x0, symName: __ZNSt3__114__rewrap_rangeB8ue170006IPKcS2_EET_S3_T0_, symObjAddr: 0x7190, symBinAddr: 0x10000A268, symSize: 0x2C }
  - { offsetInCU: 0x8F45, offset: 0x8F45, size: 0x8, addend: 0x0, symName: __ZNSt3__113__rewrap_iterB8ue170006IPcS1_NS_18__unwrap_iter_implIS1_Lb1EEEEET_S4_T0_, symObjAddr: 0x71BC, symBinAddr: 0x10000A294, symSize: 0x3C }
  - { offsetInCU: 0x8F9A, offset: 0x8F9A, size: 0x8, addend: 0x0, symName: __ZNSt3__19make_pairB8ue170006IPKcS2_EENS_4pairINS_18__unwrap_ref_decayIT_E4typeENS4_IT0_E4typeEEEOS5_OS8_, symObjAddr: 0x71F8, symBinAddr: 0x10000A2D0, symSize: 0x38 }
  - { offsetInCU: 0x8FE9, offset: 0x8FE9, size: 0x8, addend: 0x0, symName: __ZNSt3__113__unwrap_iterB8ue170006IPKcNS_18__unwrap_iter_implIS2_Lb1EEELi0EEEDTclsrT0_8__unwrapclsr3stdE7declvalIT_EEEES6_, symObjAddr: 0x7230, symBinAddr: 0x10000A308, symSize: 0x24 }
  - { offsetInCU: 0x9154, offset: 0x9154, size: 0x8, addend: 0x0, symName: __ZNSt3__119__copy_trivial_implB8ue170006IKccEENS_4pairIPT_PT0_EES4_S4_S6_, symObjAddr: 0x72E8, symBinAddr: 0x10000A3C0, symSize: 0x78 }
  - { offsetInCU: 0x91BC, offset: 0x91BC, size: 0x8, addend: 0x0, symName: __ZNSt3__119__constexpr_memmoveB8ue170006IcKcLi0EEEPT_S3_PT0_NS_15__element_countE, symObjAddr: 0x7360, symBinAddr: 0x10000A438, symSize: 0x64 }
  - { offsetInCU: 0x922A, offset: 0x922A, size: 0x8, addend: 0x0, symName: __ZNSt3__19make_pairB8ue170006IRPKcPcEENS_4pairINS_18__unwrap_ref_decayIT_E4typeENS6_IT0_E4typeEEEOS7_OSA_, symObjAddr: 0x73C4, symBinAddr: 0x10000A49C, symSize: 0x38 }
  - { offsetInCU: 0x92CC, offset: 0x92CC, size: 0x8, addend: 0x0, symName: __ZNSt3__113__rewrap_iterB8ue170006IPKcS2_NS_18__unwrap_iter_implIS2_Lb1EEEEET_S5_T0_, symObjAddr: 0x7500, symBinAddr: 0x10000A5D8, symSize: 0x3C }
  - { offsetInCU: 0x9321, offset: 0x9321, size: 0x8, addend: 0x0, symName: __ZNSt3__16fill_nB8ue170006IPcmcEET_S2_T0_RKT1_, symObjAddr: 0x75CC, symBinAddr: 0x10000A6A4, symSize: 0x44 }
  - { offsetInCU: 0x9384, offset: 0x9384, size: 0x8, addend: 0x0, symName: __ZNSt3__18__fill_nB8ue170006IPcmcEET_S2_T0_RKT1_, symObjAddr: 0x7610, symBinAddr: 0x10000A6E8, symSize: 0x64 }
  - { offsetInCU: 0x93E7, offset: 0x93E7, size: 0x8, addend: 0x0, symName: __ZNSt3__121__convert_to_integralB8ue170006Em, symObjAddr: 0x7674, symBinAddr: 0x10000A74C, symSize: 0x14 }
  - { offsetInCU: 0x9413, offset: 0x9413, size: 0x8, addend: 0x0, symName: __ZNSt3__1miB8ue170006IPK10ClientInfoS3_EEDTmicldtfp_4baseEcldtfp0_4baseEERKNS_11__wrap_iterIT_EERKNS5_IT0_EE, symObjAddr: 0x78AC, symBinAddr: 0x10000A984, symSize: 0x48 }
  - { offsetInCU: 0x945F, offset: 0x945F, size: 0x8, addend: 0x0, symName: __ZNSt3__14moveB8ue170006IP10ClientInfoS2_EET0_T_S4_S3_, symObjAddr: 0x796C, symBinAddr: 0x10000AA44, symSize: 0x40 }
  - { offsetInCU: 0x94B9, offset: 0x94B9, size: 0x8, addend: 0x0, symName: __ZNSt3__16__moveB8ue170006INS_17_ClassicAlgPolicyEP10ClientInfoS3_S3_EENS_4pairIT0_T2_EES5_T1_S6_, symObjAddr: 0x7B2C, symBinAddr: 0x10000AC04, symSize: 0x44 }
  - { offsetInCU: 0x9525, offset: 0x9525, size: 0x8, addend: 0x0, symName: __ZNSt3__123__dispatch_copy_or_moveB8ue170006INS_17_ClassicAlgPolicyENS_11__move_loopIS1_EENS_14__move_trivialEP10ClientInfoS6_S6_EENS_4pairIT2_T4_EES8_T3_S9_, symObjAddr: 0x7B70, symBinAddr: 0x10000AC48, symSize: 0x44 }
  - { offsetInCU: 0x95A3, offset: 0x95A3, size: 0x8, addend: 0x0, symName: __ZNSt3__121__unwrap_and_dispatchB8ue170006INS_10__overloadINS_11__move_loopINS_17_ClassicAlgPolicyEEENS_14__move_trivialEEEP10ClientInfoS8_S8_Li0EEENS_4pairIT0_T2_EESA_T1_SB_, symObjAddr: 0x7BB4, symBinAddr: 0x10000AC8C, symSize: 0xB4 }
  - { offsetInCU: 0x9631, offset: 0x9631, size: 0x8, addend: 0x0, symName: __ZNSt3__114__unwrap_rangeB8ue170006IP10ClientInfoS2_EENS_4pairIT0_S4_EET_S6_, symObjAddr: 0x7C68, symBinAddr: 0x10000AD40, symSize: 0x60 }
  - { offsetInCU: 0x9751, offset: 0x9751, size: 0x8, addend: 0x0, symName: __ZNSt3__113__unwrap_iterB8ue170006IP10ClientInfoNS_18__unwrap_iter_implIS2_Lb1EEELi0EEEDTclsrT0_8__unwrapclsr3stdE7declvalIT_EEEES6_, symObjAddr: 0x7D58, symBinAddr: 0x10000AE30, symSize: 0x24 }
  - { offsetInCU: 0x9795, offset: 0x9795, size: 0x8, addend: 0x0, symName: __ZNSt3__19make_pairB8ue170006IP10ClientInfoS2_EENS_4pairINS_18__unwrap_ref_decayIT_E4typeENS4_IT0_E4typeEEEOS5_OS8_, symObjAddr: 0x7D7C, symBinAddr: 0x10000AE54, symSize: 0x38 }
  - { offsetInCU: 0x97E4, offset: 0x97E4, size: 0x8, addend: 0x0, symName: __ZNSt3__114__rewrap_rangeB8ue170006IP10ClientInfoS2_EET_S3_T0_, symObjAddr: 0x7DB4, symBinAddr: 0x10000AE8C, symSize: 0x2C }
  - { offsetInCU: 0x9830, offset: 0x9830, size: 0x8, addend: 0x0, symName: __ZNSt3__113__rewrap_iterB8ue170006IP10ClientInfoS2_NS_18__unwrap_iter_implIS2_Lb1EEEEET_S5_T0_, symObjAddr: 0x7DE0, symBinAddr: 0x10000AEB8, symSize: 0x3C }
  - { offsetInCU: 0x9C18, offset: 0x9C18, size: 0x8, addend: 0x0, symName: __ZSt28__throw_bad_array_new_lengthB8ue170006v, symObjAddr: 0x3DBC, symBinAddr: 0x100006E94, symSize: 0x34 }
  - { offsetInCU: 0xA273, offset: 0xA273, size: 0x8, addend: 0x0, symName: __ZNSt3__16vectorI6pollfdNS_9allocatorIS1_EEE26__swap_out_circular_bufferERNS_14__split_bufferIS1_RS3_EE, symObjAddr: 0x36D8, symBinAddr: 0x1000067B0, symSize: 0x110 }
  - { offsetInCU: 0xA2C8, offset: 0xA2C8, size: 0x8, addend: 0x0, symName: __ZNSt3__16vectorI10ClientInfoNS_9allocatorIS1_EEE26__swap_out_circular_bufferERNS_14__split_bufferIS1_RS3_EE, symObjAddr: 0x560C, symBinAddr: 0x1000086E4, symSize: 0x110 }
  - { offsetInCU: 0xC5B1, offset: 0xC5B1, size: 0x8, addend: 0x0, symName: __Z7log_msgiPKcz, symObjAddr: 0x0, symBinAddr: 0x1000030D8, symSize: 0x1AC }
  - { offsetInCU: 0xC616, offset: 0xC616, size: 0x8, addend: 0x0, symName: __Z4helpiPPc, symObjAddr: 0x1AC, symBinAddr: 0x100003284, symSize: 0xB0 }
  - { offsetInCU: 0xC64C, offset: 0xC64C, size: 0x8, addend: 0x0, symName: __Z19evaluate_expressionRKNSt3__112basic_stringIcNS_11char_traitsIcEENS_9allocatorIcEEEERS5_, symObjAddr: 0x25C, symBinAddr: 0x100003334, symSize: 0x15C }
  - { offsetInCU: 0xC6BE, offset: 0xC6BE, size: 0x8, addend: 0x0, symName: __ZNKSt3__112basic_stringIcNS_11char_traitsIcEENS_9allocatorIcEEE5c_strB8ue170006Ev, symObjAddr: 0x3D0, symBinAddr: 0x1000034A8, symSize: 0x24 }
  - { offsetInCU: 0xC6E2, offset: 0xC6E2, size: 0x8, addend: 0x0, symName: __ZNSt3__112basic_stringIcNS_11char_traitsIcEENS_9allocatorIcEEEaSB8ue170006EPKc, symObjAddr: 0x3F4, symBinAddr: 0x1000034CC, symSize: 0x2C }
  - { offsetInCU: 0xC715, offset: 0xC715, size: 0x8, addend: 0x0, symName: _main, symObjAddr: 0x420, symBinAddr: 0x1000034F8, symSize: 0x1484 }
  - { offsetInCU: 0xCBB1, offset: 0xCBB1, size: 0x8, addend: 0x0, symName: __ZL12_OSSwapInt16t, symObjAddr: 0x18A4, symBinAddr: 0x10000497C, symSize: 0x24 }
  - { offsetInCU: 0xCBDE, offset: 0xCBDE, size: 0x8, addend: 0x0, symName: __ZNSt3__16vectorI10ClientInfoNS_9allocatorIS1_EEEC1B8ue170006Ev, symObjAddr: 0x18C8, symBinAddr: 0x1000049A0, symSize: 0x2C }
  - { offsetInCU: 0xCC07, offset: 0xCC07, size: 0x8, addend: 0x0, symName: __ZNSt3__16vectorI6pollfdNS_9allocatorIS1_EEEC1B8ue170006Ev, symObjAddr: 0x18F4, symBinAddr: 0x1000049CC, symSize: 0x2C }
  - { offsetInCU: 0xCC2F, offset: 0xCC2F, size: 0x8, addend: 0x0, symName: __ZNSt3__16vectorI6pollfdNS_9allocatorIS1_EEE9push_backB8ue170006ERKS1_, symObjAddr: 0x1920, symBinAddr: 0x1000049F8, symSize: 0x6C }
  - { offsetInCU: 0xCC64, offset: 0xCC64, size: 0x8, addend: 0x0, symName: __ZNSt3__16vectorI10ClientInfoNS_9allocatorIS1_EEE5beginB8ue170006Ev, symObjAddr: 0x198C, symBinAddr: 0x100004A64, symSize: 0x30 }
  - { offsetInCU: 0xCC8A, offset: 0xCC8A, size: 0x8, addend: 0x0, symName: __ZNSt3__16vectorI10ClientInfoNS_9allocatorIS1_EEE3endB8ue170006Ev, symObjAddr: 0x19BC, symBinAddr: 0x100004A94, symSize: 0x30 }
  - { offsetInCU: 0xCCB1, offset: 0xCCB1, size: 0x8, addend: 0x0, symName: __ZNKSt3__111__wrap_iterIP10ClientInfoEdeB8ue170006Ev, symObjAddr: 0x1A20, symBinAddr: 0x100004AF8, symSize: 0x18 }
  - { offsetInCU: 0xCCD6, offset: 0xCCD6, size: 0x8, addend: 0x0, symName: __ZNSt3__111__wrap_iterIP10ClientInfoEppB8ue170006Ev, symObjAddr: 0x1A38, symBinAddr: 0x100004B10, symSize: 0x20 }
  - { offsetInCU: 0xCCFA, offset: 0xCCFA, size: 0x8, addend: 0x0, symName: __ZNSt3__16vectorI6pollfdNS_9allocatorIS1_EEE4dataB8ue170006Ev, symObjAddr: 0x1A58, symBinAddr: 0x100004B30, symSize: 0x28 }
  - { offsetInCU: 0xCD1F, offset: 0xCD1F, size: 0x8, addend: 0x0, symName: __ZNKSt3__16vectorI6pollfdNS_9allocatorIS1_EEE4sizeB8ue170006Ev, symObjAddr: 0x1A80, symBinAddr: 0x100004B58, symSize: 0x28 }
  - { offsetInCU: 0xCD44, offset: 0xCD44, size: 0x8, addend: 0x0, symName: __ZNSt3__16vectorI6pollfdNS_9allocatorIS1_EEEixB8ue170006Em, symObjAddr: 0x1AA8, symBinAddr: 0x100004B80, symSize: 0x24 }
  - { offsetInCU: 0xCD7F, offset: 0xCD7F, size: 0x8, addend: 0x0, symName: __ZNSt3__112basic_stringIcNS_11char_traitsIcEENS_9allocatorIcEEEC1B8ue170006ILi0EEEPKc, symObjAddr: 0x1ACC, symBinAddr: 0x100004BA4, symSize: 0x34 }
  - { offsetInCU: 0xCDBC, offset: 0xCDBC, size: 0x8, addend: 0x0, symName: __ZNSt3__112basic_stringIcNS_11char_traitsIcEENS_9allocatorIcEEE5eraseB8ue170006ENS_11__wrap_iterIPKcEES9_, symObjAddr: 0x1B00, symBinAddr: 0x100004BD8, symSize: 0x98 }
  - { offsetInCU: 0xCE1E, offset: 0xCE1E, size: 0x8, addend: 0x0, symName: __ZNSt3__112basic_stringIcNS_11char_traitsIcEENS_9allocatorIcEEE5beginB8ue170006Ev, symObjAddr: 0x1CA0, symBinAddr: 0x100004D78, symSize: 0x4C }
  - { offsetInCU: 0xCE42, offset: 0xCE42, size: 0x8, addend: 0x0, symName: __ZNSt3__112basic_stringIcNS_11char_traitsIcEENS_9allocatorIcEEE3endB8ue170006Ev, symObjAddr: 0x1CEC, symBinAddr: 0x100004DC4, symSize: 0x54 }
  - { offsetInCU: 0xCE71, offset: 0xCE71, size: 0x8, addend: 0x0, symName: __ZNSt3__111__wrap_iterIPKcEC1B8ue170006IPcEERKNS0_IT_EEPNS_9enable_ifIXsr14is_convertibleIS6_S2_EE5valueEvE4typeE, symObjAddr: 0x1D40, symBinAddr: 0x100004E18, symSize: 0x3C }
  - { offsetInCU: 0xCEC0, offset: 0xCEC0, size: 0x8, addend: 0x0, symName: __ZN10ClientInfoC1Ev, symObjAddr: 0x1D7C, symBinAddr: 0x100004E54, symSize: 0x2C }
  - { offsetInCU: 0xCEEA, offset: 0xCEEA, size: 0x8, addend: 0x0, symName: __ZNSt3__16vectorI10ClientInfoNS_9allocatorIS1_EEE9push_backB8ue170006ERKS1_, symObjAddr: 0x1DA8, symBinAddr: 0x100004E80, symSize: 0x6C }
  - { offsetInCU: 0xCF20, offset: 0xCF20, size: 0x8, addend: 0x0, symName: __ZN10ClientInfoD1Ev, symObjAddr: 0x1E14, symBinAddr: 0x100004EEC, symSize: 0x2C }
  - { offsetInCU: 0xCF4A, offset: 0xCF4A, size: 0x8, addend: 0x0, symName: __ZNKSt3__111__wrap_iterIP10ClientInfoEptB8ue170006Ev, symObjAddr: 0x1F04, symBinAddr: 0x100004FDC, symSize: 0x28 }
  - { offsetInCU: 0xCF6F, offset: 0xCF6F, size: 0x8, addend: 0x0, symName: __ZNKSt3__16vectorI10ClientInfoNS_9allocatorIS1_EEE4sizeB8ue170006Ev, symObjAddr: 0x1F2C, symBinAddr: 0x100005004, symSize: 0x28 }
  - { offsetInCU: 0xCF93, offset: 0xCF93, size: 0x8, addend: 0x0, symName: __ZNSt3__112basic_stringIcNS_11char_traitsIcEENS_9allocatorIcEEEpLB8ue170006ERKS5_, symObjAddr: 0x2040, symBinAddr: 0x100005118, symSize: 0x2C }
  - { offsetInCU: 0xCFC6, offset: 0xCFC6, size: 0x8, addend: 0x0, symName: __ZNKSt3__112basic_stringIcNS_11char_traitsIcEENS_9allocatorIcEEE4sizeB8ue170006Ev, symObjAddr: 0x206C, symBinAddr: 0x100005144, symSize: 0x54 }
  - { offsetInCU: 0xCFEB, offset: 0xCFEB, size: 0x8, addend: 0x0, symName: __ZNSt3__112basic_stringIcNS_11char_traitsIcEENS_9allocatorIcEEEC1B8ue170006Ev, symObjAddr: 0x20C0, symBinAddr: 0x100005198, symSize: 0x2C }
  - { offsetInCU: 0xD013, offset: 0xD013, size: 0x8, addend: 0x0, symName: __ZNKSt3__112basic_stringIcNS_11char_traitsIcEENS_9allocatorIcEEE5emptyB8ue170006Ev, symObjAddr: 0x20EC, symBinAddr: 0x1000051C4, symSize: 0x30 }
  - { offsetInCU: 0xD037, offset: 0xD037, size: 0x8, addend: 0x0, symName: __ZNSt3__112basic_stringIcNS_11char_traitsIcEENS_9allocatorIcEEEaSB8ue170006EOS5_, symObjAddr: 0x2278, symBinAddr: 0x100005350, symSize: 0x34 }
  - { offsetInCU: 0xD06A, offset: 0xD06A, size: 0x8, addend: 0x0, symName: __ZNSt3__16vectorI10ClientInfoNS_9allocatorIS1_EEE5eraseB8ue170006ENS_11__wrap_iterIPKS1_EE, symObjAddr: 0x2368, symBinAddr: 0x100005440, symSize: 0x94 }
  - { offsetInCU: 0xD0C3, offset: 0xD0C3, size: 0x8, addend: 0x0, symName: __ZNSt3__111__wrap_iterIPK10ClientInfoEC1B8ue170006IPS1_EERKNS0_IT_EEPNS_9enable_ifIXsr14is_convertibleIS7_S3_EE5valueEvE4typeE, symObjAddr: 0x23FC, symBinAddr: 0x1000054D4, symSize: 0x3C }
  - { offsetInCU: 0xD10D, offset: 0xD10D, size: 0x8, addend: 0x0, symName: __ZNSt3__16vectorI6pollfdNS_9allocatorIS1_EEED1B8ue170006Ev, symObjAddr: 0x2438, symBinAddr: 0x100005510, symSize: 0x2C }
  - { offsetInCU: 0xD136, offset: 0xD136, size: 0x8, addend: 0x0, symName: __ZNSt3__16vectorI10ClientInfoNS_9allocatorIS1_EEED1B8ue170006Ev, symObjAddr: 0x2464, symBinAddr: 0x10000553C, symSize: 0x2C }
  - { offsetInCU: 0xD15F, offset: 0xD15F, size: 0x8, addend: 0x0, symName: __ZN10ClientInfoC2Ev, symObjAddr: 0x2490, symBinAddr: 0x100005568, symSize: 0x30 }
  - { offsetInCU: 0xD18A, offset: 0xD18A, size: 0x8, addend: 0x0, symName: __ZN10ClientInfoD2Ev, symObjAddr: 0x24C0, symBinAddr: 0x100005598, symSize: 0x30 }
  - { offsetInCU: 0xD1B5, offset: 0xD1B5, size: 0x8, addend: 0x0, symName: __ZNKSt3__111__wrap_iterIP10ClientInfoE4baseB8ue170006Ev, symObjAddr: 0x24F0, symBinAddr: 0x1000055C8, symSize: 0x18 }
  - { offsetInCU: 0xD1D9, offset: 0xD1D9, size: 0x8, addend: 0x0, symName: __ZNKSt3__112basic_stringIcNS_11char_traitsIcEENS_9allocatorIcEEE4dataB8ue170006Ev, symObjAddr: 0x2508, symBinAddr: 0x1000055E0, symSize: 0x28 }
  - { offsetInCU: 0xD1FD, offset: 0xD1FD, size: 0x8, addend: 0x0, symName: __ZNKSt3__112basic_stringIcNS_11char_traitsIcEENS_9allocatorIcEEE13__get_pointerB8ue170006Ev, symObjAddr: 0x2544, symBinAddr: 0x10000561C, symSize: 0x54 }
  - { offsetInCU: 0xD221, offset: 0xD221, size: 0x8, addend: 0x0, symName: __ZNKSt3__112basic_stringIcNS_11char_traitsIcEENS_9allocatorIcEEE9__is_longB8ue170006Ev, symObjAddr: 0x2598, symBinAddr: 0x100005670, symSize: 0x38 }
  - { offsetInCU: 0xD245, offset: 0xD245, size: 0x8, addend: 0x0, symName: __ZNKSt3__112basic_stringIcNS_11char_traitsIcEENS_9allocatorIcEEE18__get_long_pointerB8ue170006Ev, symObjAddr: 0x25D0, symBinAddr: 0x1000056A8, symSize: 0x28 }
  - { offsetInCU: 0xD269, offset: 0xD269, size: 0x8, addend: 0x0, symName: __ZNKSt3__112basic_stringIcNS_11char_traitsIcEENS_9allocatorIcEEE19__get_short_pointerB8ue170006Ev, symObjAddr: 0x25F8, symBinAddr: 0x1000056D0, symSize: 0x28 }
  - { offsetInCU: 0xD28D, offset: 0xD28D, size: 0x8, addend: 0x0, symName: __ZNKSt3__117__compressed_pairINS_12basic_stringIcNS_11char_traitsIcEENS_9allocatorIcEEE5__repES5_E5firstB8ue170006Ev, symObjAddr: 0x2620, symBinAddr: 0x1000056F8, symSize: 0x24 }
  - { offsetInCU: 0xD2B2, offset: 0xD2B2, size: 0x8, addend: 0x0, symName: __ZNKSt3__122__compressed_pair_elemINS_12basic_stringIcNS_11char_traitsIcEENS_9allocatorIcEEE5__repELi0ELb0EE5__getB8ue170006Ev, symObjAddr: 0x2644, symBinAddr: 0x10000571C, symSize: 0x14 }
  - { offsetInCU: 0xD2D7, offset: 0xD2D7, size: 0x8, addend: 0x0, symName: __ZNSt3__114pointer_traitsIPKcE10pointer_toB8ue170006ERS1_, symObjAddr: 0x2658, symBinAddr: 0x100005730, symSize: 0x14 }
  - { offsetInCU: 0xD2FA, offset: 0xD2FA, size: 0x8, addend: 0x0, symName: __ZNSt3__16vectorI10ClientInfoNS_9allocatorIS1_EEEC2B8ue170006Ev, symObjAddr: 0x266C, symBinAddr: 0x100005744, symSize: 0x4C }
  - { offsetInCU: 0xD32D, offset: 0xD32D, size: 0x8, addend: 0x0, symName: __ZNSt3__117__compressed_pairIP10ClientInfoNS_9allocatorIS1_EEEC1B8ue170006IDnNS_18__default_init_tagEEEOT_OT0_, symObjAddr: 0x26B8, symBinAddr: 0x100005790, symSize: 0x3C }
  - { offsetInCU: 0xD384, offset: 0xD384, size: 0x8, addend: 0x0, symName: __ZNSt3__117__compressed_pairIP10ClientInfoNS_9allocatorIS1_EEEC2B8ue170006IDnNS_18__default_init_tagEEEOT_OT0_, symObjAddr: 0x2700, symBinAddr: 0x1000057D8, symSize: 0x40 }
  - { offsetInCU: 0xD3DB, offset: 0xD3DB, size: 0x8, addend: 0x0, symName: __ZNSt3__122__compressed_pair_elemIP10ClientInfoLi0ELb0EEC2B8ue170006IDnvEEOT_, symObjAddr: 0x2740, symBinAddr: 0x100005818, symSize: 0x1C }
  - { offsetInCU: 0xD41C, offset: 0xD41C, size: 0x8, addend: 0x0, symName: __ZNSt3__122__compressed_pair_elemINS_9allocatorI10ClientInfoEELi1ELb1EEC2B8ue170006ENS_18__default_init_tagE, symObjAddr: 0x275C, symBinAddr: 0x100005834, symSize: 0x2C }
  - { offsetInCU: 0xD44F, offset: 0xD44F, size: 0x8, addend: 0x0, symName: __ZNSt3__19allocatorI10ClientInfoEC2B8ue170006Ev, symObjAddr: 0x2788, symBinAddr: 0x100005860, symSize: 0x2C }
  - { offsetInCU: 0xD478, offset: 0xD478, size: 0x8, addend: 0x0, symName: __ZNSt3__116__non_trivial_ifILb1ENS_9allocatorI10ClientInfoEEEC2B8ue170006Ev, symObjAddr: 0x27B4, symBinAddr: 0x10000588C, symSize: 0x14 }
  - { offsetInCU: 0xD4A1, offset: 0xD4A1, size: 0x8, addend: 0x0, symName: __ZNSt3__16vectorI10ClientInfoNS_9allocatorIS1_EEED2B8ue170006Ev, symObjAddr: 0x27C8, symBinAddr: 0x1000058A0, symSize: 0x44 }
  - { offsetInCU: 0xD4CA, offset: 0xD4CA, size: 0x8, addend: 0x0, symName: __ZNSt3__16vectorI10ClientInfoNS_9allocatorIS1_EEE16__destroy_vectorC1B8ue170006ERS4_, symObjAddr: 0x280C, symBinAddr: 0x1000058E4, symSize: 0x34 }
  - { offsetInCU: 0xD501, offset: 0xD501, size: 0x8, addend: 0x0, symName: __ZNSt3__16vectorI10ClientInfoNS_9allocatorIS1_EEE16__destroy_vectorclB8ue170006Ev, symObjAddr: 0x2840, symBinAddr: 0x100005918, symSize: 0x90 }
  - { offsetInCU: 0xD526, offset: 0xD526, size: 0x8, addend: 0x0, symName: __ZNSt3__16vectorI10ClientInfoNS_9allocatorIS1_EEE16__destroy_vectorC2B8ue170006ERS4_, symObjAddr: 0x28D0, symBinAddr: 0x1000059A8, symSize: 0x20 }
  - { offsetInCU: 0xD55D, offset: 0xD55D, size: 0x8, addend: 0x0, symName: __ZNSt3__16vectorI10ClientInfoNS_9allocatorIS1_EEE7__clearB8ue170006Ev, symObjAddr: 0x28F0, symBinAddr: 0x1000059C8, symSize: 0x28 }
  - { offsetInCU: 0xD581, offset: 0xD581, size: 0x8, addend: 0x0, symName: __ZNKSt3__16vectorI10ClientInfoNS_9allocatorIS1_EEE17__annotate_deleteB8ue170006Ev, symObjAddr: 0x2918, symBinAddr: 0x1000059F0, symSize: 0xB8 }
  - { offsetInCU: 0xD5A6, offset: 0xD5A6, size: 0x8, addend: 0x0, symName: __ZNSt3__116allocator_traitsINS_9allocatorI10ClientInfoEEE10deallocateB8ue170006ERS3_PS2_m, symObjAddr: 0x29D0, symBinAddr: 0x100005AA8, symSize: 0x34 }
  - { offsetInCU: 0xD5E7, offset: 0xD5E7, size: 0x8, addend: 0x0, symName: __ZNSt3__16vectorI10ClientInfoNS_9allocatorIS1_EEE7__allocB8ue170006Ev, symObjAddr: 0x2A04, symBinAddr: 0x100005ADC, symSize: 0x28 }
  - { offsetInCU: 0xD60B, offset: 0xD60B, size: 0x8, addend: 0x0, symName: __ZNKSt3__16vectorI10ClientInfoNS_9allocatorIS1_EEE8capacityB8ue170006Ev, symObjAddr: 0x2A2C, symBinAddr: 0x100005B04, symSize: 0x40 }
  - { offsetInCU: 0xD62F, offset: 0xD62F, size: 0x8, addend: 0x0, symName: __ZNSt3__16vectorI10ClientInfoNS_9allocatorIS1_EEE22__base_destruct_at_endB8ue170006EPS1_, symObjAddr: 0x2A6C, symBinAddr: 0x100005B44, symSize: 0x8C }
  - { offsetInCU: 0xD672, offset: 0xD672, size: 0x8, addend: 0x0, symName: __ZNSt3__116allocator_traitsINS_9allocatorI10ClientInfoEEE7destroyB8ue170006IS2_vEEvRS3_PT_, symObjAddr: 0x2AF8, symBinAddr: 0x100005BD0, symSize: 0x2C }
  - { offsetInCU: 0xD6AE, offset: 0xD6AE, size: 0x8, addend: 0x0, symName: __ZNSt3__19allocatorI10ClientInfoE7destroyB8ue170006EPS1_, symObjAddr: 0x2B38, symBinAddr: 0x100005C10, symSize: 0x28 }
  - { offsetInCU: 0xD6E1, offset: 0xD6E1, size: 0x8, addend: 0x0, symName: __ZNKSt3__16vectorI10ClientInfoNS_9allocatorIS1_EEE31__annotate_contiguous_containerB8ue170006EPKvS6_S6_S6_, symObjAddr: 0x2B60, symBinAddr: 0x100005C38, symSize: 0x20 }
  - { offsetInCU: 0xD731, offset: 0xD731, size: 0x8, addend: 0x0, symName: __ZNKSt3__16vectorI10ClientInfoNS_9allocatorIS1_EEE4dataB8ue170006Ev, symObjAddr: 0x2B80, symBinAddr: 0x100005C58, symSize: 0x28 }
  - { offsetInCU: 0xD755, offset: 0xD755, size: 0x8, addend: 0x0, symName: __ZNSt3__19allocatorI10ClientInfoE10deallocateB8ue170006EPS1_m, symObjAddr: 0x2BA8, symBinAddr: 0x100005C80, symSize: 0x40 }
  - { offsetInCU: 0xD795, offset: 0xD795, size: 0x8, addend: 0x0, symName: __ZNSt3__117__compressed_pairIP10ClientInfoNS_9allocatorIS1_EEE6secondB8ue170006Ev, symObjAddr: 0x2C64, symBinAddr: 0x100005D3C, symSize: 0x24 }
  - { offsetInCU: 0xD7BA, offset: 0xD7BA, size: 0x8, addend: 0x0, symName: __ZNSt3__122__compressed_pair_elemINS_9allocatorI10ClientInfoEELi1ELb1EE5__getB8ue170006Ev, symObjAddr: 0x2C88, symBinAddr: 0x100005D60, symSize: 0x14 }
  - { offsetInCU: 0xD7DE, offset: 0xD7DE, size: 0x8, addend: 0x0, symName: __ZNKSt3__16vectorI10ClientInfoNS_9allocatorIS1_EEE9__end_capB8ue170006Ev, symObjAddr: 0x2C9C, symBinAddr: 0x100005D74, symSize: 0x28 }
  - { offsetInCU: 0xD802, offset: 0xD802, size: 0x8, addend: 0x0, symName: __ZNKSt3__117__compressed_pairIP10ClientInfoNS_9allocatorIS1_EEE5firstB8ue170006Ev, symObjAddr: 0x2CC4, symBinAddr: 0x100005D9C, symSize: 0x24 }
  - { offsetInCU: 0xD827, offset: 0xD827, size: 0x8, addend: 0x0, symName: __ZNKSt3__122__compressed_pair_elemIP10ClientInfoLi0ELb0EE5__getB8ue170006Ev, symObjAddr: 0x2CE8, symBinAddr: 0x100005DC0, symSize: 0x14 }
  - { offsetInCU: 0xD84C, offset: 0xD84C, size: 0x8, addend: 0x0, symName: __ZNSt3__16vectorI6pollfdNS_9allocatorIS1_EEEC2B8ue170006Ev, symObjAddr: 0x2CFC, symBinAddr: 0x100005DD4, symSize: 0x4C }
  - { offsetInCU: 0xD875, offset: 0xD875, size: 0x8, addend: 0x0, symName: __ZNSt3__117__compressed_pairIP6pollfdNS_9allocatorIS1_EEEC1B8ue170006IDnNS_18__default_init_tagEEEOT_OT0_, symObjAddr: 0x2D48, symBinAddr: 0x100005E20, symSize: 0x3C }
  - { offsetInCU: 0xD8CC, offset: 0xD8CC, size: 0x8, addend: 0x0, symName: __ZNSt3__117__compressed_pairIP6pollfdNS_9allocatorIS1_EEEC2B8ue170006IDnNS_18__default_init_tagEEEOT_OT0_, symObjAddr: 0x2D84, symBinAddr: 0x100005E5C, symSize: 0x40 }
  - { offsetInCU: 0xD923, offset: 0xD923, size: 0x8, addend: 0x0, symName: __ZNSt3__122__compressed_pair_elemIP6pollfdLi0ELb0EEC2B8ue170006IDnvEEOT_, symObjAddr: 0x2DC4, symBinAddr: 0x100005E9C, symSize: 0x1C }
  - { offsetInCU: 0xD964, offset: 0xD964, size: 0x8, addend: 0x0, symName: __ZNSt3__122__compressed_pair_elemINS_9allocatorI6pollfdEELi1ELb1EEC2B8ue170006ENS_18__default_init_tagE, symObjAddr: 0x2DE0, symBinAddr: 0x100005EB8, symSize: 0x2C }
  - { offsetInCU: 0xD997, offset: 0xD997, size: 0x8, addend: 0x0, symName: __ZNSt3__19allocatorI6pollfdEC2B8ue170006Ev, symObjAddr: 0x2E0C, symBinAddr: 0x100005EE4, symSize: 0x2C }
  - { offsetInCU: 0xD9C0, offset: 0xD9C0, size: 0x8, addend: 0x0, symName: __ZNSt3__116__non_trivial_ifILb1ENS_9allocatorI6pollfdEEEC2B8ue170006Ev, symObjAddr: 0x2E38, symBinAddr: 0x100005F10, symSize: 0x14 }
  - { offsetInCU: 0xD9E9, offset: 0xD9E9, size: 0x8, addend: 0x0, symName: __ZNSt3__16vectorI6pollfdNS_9allocatorIS1_EEED2B8ue170006Ev, symObjAddr: 0x2E4C, symBinAddr: 0x100005F24, symSize: 0x44 }
  - { offsetInCU: 0xDA12, offset: 0xDA12, size: 0x8, addend: 0x0, symName: __ZNSt3__16vectorI6pollfdNS_9allocatorIS1_EEE16__destroy_vectorC1B8ue170006ERS4_, symObjAddr: 0x2E90, symBinAddr: 0x100005F68, symSize: 0x34 }
  - { offsetInCU: 0xDA49, offset: 0xDA49, size: 0x8, addend: 0x0, symName: __ZNSt3__16vectorI6pollfdNS_9allocatorIS1_EEE16__destroy_vectorclB8ue170006Ev, symObjAddr: 0x2EC4, symBinAddr: 0x100005F9C, symSize: 0x90 }
  - { offsetInCU: 0xDA6E, offset: 0xDA6E, size: 0x8, addend: 0x0, symName: __ZNSt3__16vectorI6pollfdNS_9allocatorIS1_EEE16__destroy_vectorC2B8ue170006ERS4_, symObjAddr: 0x2F54, symBinAddr: 0x10000602C, symSize: 0x20 }
  - { offsetInCU: 0xDAA5, offset: 0xDAA5, size: 0x8, addend: 0x0, symName: __ZNSt3__16vectorI6pollfdNS_9allocatorIS1_EEE7__clearB8ue170006Ev, symObjAddr: 0x2F74, symBinAddr: 0x10000604C, symSize: 0x28 }
  - { offsetInCU: 0xDAC9, offset: 0xDAC9, size: 0x8, addend: 0x0, symName: __ZNKSt3__16vectorI6pollfdNS_9allocatorIS1_EEE17__annotate_deleteB8ue170006Ev, symObjAddr: 0x2F9C, symBinAddr: 0x100006074, symSize: 0xB8 }
  - { offsetInCU: 0xDAEE, offset: 0xDAEE, size: 0x8, addend: 0x0, symName: __ZNSt3__116allocator_traitsINS_9allocatorI6pollfdEEE10deallocateB8ue170006ERS3_PS2_m, symObjAddr: 0x3054, symBinAddr: 0x10000612C, symSize: 0x34 }
  - { offsetInCU: 0xDB2F, offset: 0xDB2F, size: 0x8, addend: 0x0, symName: __ZNSt3__16vectorI6pollfdNS_9allocatorIS1_EEE7__allocB8ue170006Ev, symObjAddr: 0x3088, symBinAddr: 0x100006160, symSize: 0x28 }
  - { offsetInCU: 0xDB53, offset: 0xDB53, size: 0x8, addend: 0x0, symName: __ZNKSt3__16vectorI6pollfdNS_9allocatorIS1_EEE8capacityB8ue170006Ev, symObjAddr: 0x30B0, symBinAddr: 0x100006188, symSize: 0x40 }
  - { offsetInCU: 0xDB77, offset: 0xDB77, size: 0x8, addend: 0x0, symName: __ZNSt3__16vectorI6pollfdNS_9allocatorIS1_EEE22__base_destruct_at_endB8ue170006EPS1_, symObjAddr: 0x30F0, symBinAddr: 0x1000061C8, symSize: 0x8C }
  - { offsetInCU: 0xDBBA, offset: 0xDBBA, size: 0x8, addend: 0x0, symName: __ZNSt3__116allocator_traitsINS_9allocatorI6pollfdEEE7destroyB8ue170006IS2_vEEvRS3_PT_, symObjAddr: 0x317C, symBinAddr: 0x100006254, symSize: 0x2C }
  - { offsetInCU: 0xDBF7, offset: 0xDBF7, size: 0x8, addend: 0x0, symName: __ZNSt3__19allocatorI6pollfdE7destroyB8ue170006EPS1_, symObjAddr: 0x31BC, symBinAddr: 0x100006294, symSize: 0x14 }
  - { offsetInCU: 0xDC2A, offset: 0xDC2A, size: 0x8, addend: 0x0, symName: __ZNKSt3__16vectorI6pollfdNS_9allocatorIS1_EEE31__annotate_contiguous_containerB8ue170006EPKvS6_S6_S6_, symObjAddr: 0x31D0, symBinAddr: 0x1000062A8, symSize: 0x20 }
  - { offsetInCU: 0xDC7A, offset: 0xDC7A, size: 0x8, addend: 0x0, symName: __ZNKSt3__16vectorI6pollfdNS_9allocatorIS1_EEE4dataB8ue170006Ev, symObjAddr: 0x31F0, symBinAddr: 0x1000062C8, symSize: 0x28 }
  - { offsetInCU: 0xDC9E, offset: 0xDC9E, size: 0x8, addend: 0x0, symName: __ZNSt3__19allocatorI6pollfdE10deallocateB8ue170006EPS1_m, symObjAddr: 0x3218, symBinAddr: 0x1000062F0, symSize: 0x40 }
  - { offsetInCU: 0xDCDE, offset: 0xDCDE, size: 0x8, addend: 0x0, symName: __ZNSt3__117__compressed_pairIP6pollfdNS_9allocatorIS1_EEE6secondB8ue170006Ev, symObjAddr: 0x3258, symBinAddr: 0x100006330, symSize: 0x24 }
  - { offsetInCU: 0xDD03, offset: 0xDD03, size: 0x8, addend: 0x0, symName: __ZNSt3__122__compressed_pair_elemINS_9allocatorI6pollfdEELi1ELb1EE5__getB8ue170006Ev, symObjAddr: 0x327C, symBinAddr: 0x100006354, symSize: 0x14 }
  - { offsetInCU: 0xDD27, offset: 0xDD27, size: 0x8, addend: 0x0, symName: __ZNKSt3__16vectorI6pollfdNS_9allocatorIS1_EEE9__end_capB8ue170006Ev, symObjAddr: 0x3290, symBinAddr: 0x100006368, symSize: 0x28 }
  - { offsetInCU: 0xDD4B, offset: 0xDD4B, size: 0x8, addend: 0x0, symName: __ZNKSt3__117__compressed_pairIP6pollfdNS_9allocatorIS1_EEE5firstB8ue170006Ev, symObjAddr: 0x32B8, symBinAddr: 0x100006390, symSize: 0x24 }
  - { offsetInCU: 0xDD70, offset: 0xDD70, size: 0x8, addend: 0x0, symName: __ZNKSt3__122__compressed_pair_elemIP6pollfdLi0ELb0EE5__getB8ue170006Ev, symObjAddr: 0x32DC, symBinAddr: 0x1000063B4, symSize: 0x14 }
  - { offsetInCU: 0xDD94, offset: 0xDD94, size: 0x8, addend: 0x0, symName: __ZNSt3__16vectorI6pollfdNS_9allocatorIS1_EEE9__end_capB8ue170006Ev, symObjAddr: 0x32F0, symBinAddr: 0x1000063C8, symSize: 0x28 }
  - { offsetInCU: 0xDDB8, offset: 0xDDB8, size: 0x8, addend: 0x0, symName: __ZNSt3__16vectorI6pollfdNS_9allocatorIS1_EEE22__construct_one_at_endB8ue170006IJRKS1_EEEvDpOT_, symObjAddr: 0x3318, symBinAddr: 0x1000063F0, symSize: 0x90 }
  - { offsetInCU: 0xDE05, offset: 0xDE05, size: 0x8, addend: 0x0, symName: __ZNSt3__16vectorI6pollfdNS_9allocatorIS1_EEE21__push_back_slow_pathIRKS1_EEvOT_, symObjAddr: 0x33A8, symBinAddr: 0x100006480, symSize: 0xD8 }
  - { offsetInCU: 0xDE61, offset: 0xDE61, size: 0x8, addend: 0x0, symName: __ZNSt3__117__compressed_pairIP6pollfdNS_9allocatorIS1_EEE5firstB8ue170006Ev, symObjAddr: 0x3480, symBinAddr: 0x100006558, symSize: 0x24 }
  - { offsetInCU: 0xDE86, offset: 0xDE86, size: 0x8, addend: 0x0, symName: __ZNSt3__122__compressed_pair_elemIP6pollfdLi0ELb0EE5__getB8ue170006Ev, symObjAddr: 0x34A4, symBinAddr: 0x10000657C, symSize: 0x14 }
  - { offsetInCU: 0xDEC4, offset: 0xDEC4, size: 0x8, addend: 0x0, symName: __ZNSt3__16vectorI6pollfdNS_9allocatorIS1_EEE21_ConstructTransactionC1B8ue170006ERS4_m, symObjAddr: 0x34B8, symBinAddr: 0x100006590, symSize: 0x3C }
  - { offsetInCU: 0xDF0B, offset: 0xDF0B, size: 0x8, addend: 0x0, symName: __ZNSt3__116allocator_traitsINS_9allocatorI6pollfdEEE9constructB8ue170006IS2_JRKS2_EvEEvRS3_PT_DpOT0_, symObjAddr: 0x34F4, symBinAddr: 0x1000065CC, symSize: 0x34 }
  - { offsetInCU: 0xDF62, offset: 0xDF62, size: 0x8, addend: 0x0, symName: __ZNSt3__16vectorI6pollfdNS_9allocatorIS1_EEE21_ConstructTransactionD1B8ue170006Ev, symObjAddr: 0x3528, symBinAddr: 0x100006600, symSize: 0x2C }
  - { offsetInCU: 0xDF8B, offset: 0xDF8B, size: 0x8, addend: 0x0, symName: __ZNSt3__16vectorI6pollfdNS_9allocatorIS1_EEE21_ConstructTransactionC2B8ue170006ERS4_m, symObjAddr: 0x3554, symBinAddr: 0x10000662C, symSize: 0x44 }
  - { offsetInCU: 0xDFD2, offset: 0xDFD2, size: 0x8, addend: 0x0, symName: __ZNSt3__19allocatorI6pollfdE9constructB8ue170006IS1_JRKS1_EEEvPT_DpOT0_, symObjAddr: 0x3598, symBinAddr: 0x100006670, symSize: 0x28 }
  - { offsetInCU: 0xE027, offset: 0xE027, size: 0x8, addend: 0x0, symName: __ZNSt3__16vectorI6pollfdNS_9allocatorIS1_EEE21_ConstructTransactionD2B8ue170006Ev, symObjAddr: 0x35C0, symBinAddr: 0x100006698, symSize: 0x20 }
  - { offsetInCU: 0xE04F, offset: 0xE04F, size: 0x8, addend: 0x0, symName: __ZNKSt3__16vectorI6pollfdNS_9allocatorIS1_EEE11__recommendB8ue170006Em, symObjAddr: 0x35E0, symBinAddr: 0x1000066B8, symSize: 0xB4 }
  - { offsetInCU: 0xE0A3, offset: 0xE0A3, size: 0x8, addend: 0x0, symName: __ZNSt3__114__split_bufferI6pollfdRNS_9allocatorIS1_EEEC1EmmS4_, symObjAddr: 0x3694, symBinAddr: 0x10000676C, symSize: 0x44 }
  - { offsetInCU: 0xE0F8, offset: 0xE0F8, size: 0x8, addend: 0x0, symName: __ZNSt3__114__split_bufferI6pollfdRNS_9allocatorIS1_EEED1Ev, symObjAddr: 0x37E8, symBinAddr: 0x1000068C0, symSize: 0x2C }
  - { offsetInCU: 0xE122, offset: 0xE122, size: 0x8, addend: 0x0, symName: __ZNKSt3__16vectorI6pollfdNS_9allocatorIS1_EEE8max_sizeEv, symObjAddr: 0x3814, symBinAddr: 0x1000068EC, symSize: 0x60 }
  - { offsetInCU: 0xE148, offset: 0xE148, size: 0x8, addend: 0x0, symName: __ZNKSt3__16vectorI6pollfdNS_9allocatorIS1_EEE20__throw_length_errorB8ue170006Ev, symObjAddr: 0x3874, symBinAddr: 0x10000694C, symSize: 0x1C }
  - { offsetInCU: 0xE177, offset: 0xE177, size: 0x8, addend: 0x0, symName: __ZNSt3__116allocator_traitsINS_9allocatorI6pollfdEEE8max_sizeB8ue170006IS3_vEEmRKS3_, symObjAddr: 0x38E8, symBinAddr: 0x1000069C0, symSize: 0x24 }
  - { offsetInCU: 0xE1A4, offset: 0xE1A4, size: 0x8, addend: 0x0, symName: __ZNKSt3__16vectorI6pollfdNS_9allocatorIS1_EEE7__allocB8ue170006Ev, symObjAddr: 0x390C, symBinAddr: 0x1000069E4, symSize: 0x28 }
  - { offsetInCU: 0xE1C9, offset: 0xE1C9, size: 0x8, addend: 0x0, symName: __ZNSt3__114numeric_limitsIlE3maxB8ue170006Ev, symObjAddr: 0x3934, symBinAddr: 0x100006A0C, symSize: 0x14 }
  - { offsetInCU: 0xE1F1, offset: 0xE1F1, size: 0x8, addend: 0x0, symName: __ZNKSt3__16__lessIvvEclB8ue170006ImmEEbRKT_RKT0_, symObjAddr: 0x399C, symBinAddr: 0x100006A74, symSize: 0x34 }
  - { offsetInCU: 0xE244, offset: 0xE244, size: 0x8, addend: 0x0, symName: __ZNKSt3__19allocatorI6pollfdE8max_sizeB8ue170006Ev, symObjAddr: 0x39D0, symBinAddr: 0x100006AA8, symSize: 0x14 }
  - { offsetInCU: 0xE268, offset: 0xE268, size: 0x8, addend: 0x0, symName: __ZNKSt3__117__compressed_pairIP6pollfdNS_9allocatorIS1_EEE6secondB8ue170006Ev, symObjAddr: 0x39E4, symBinAddr: 0x100006ABC, symSize: 0x24 }
  - { offsetInCU: 0xE28D, offset: 0xE28D, size: 0x8, addend: 0x0, symName: __ZNKSt3__122__compressed_pair_elemINS_9allocatorI6pollfdEELi1ELb1EE5__getB8ue170006Ev, symObjAddr: 0x3A08, symBinAddr: 0x100006AE0, symSize: 0x14 }
  - { offsetInCU: 0xE2B2, offset: 0xE2B2, size: 0x8, addend: 0x0, symName: __ZNSt3__123__libcpp_numeric_limitsIlLb1EE3maxB8ue170006Ev, symObjAddr: 0x3A1C, symBinAddr: 0x100006AF4, symSize: 0x8 }
  - { offsetInCU: 0xE2C6, offset: 0xE2C6, size: 0x8, addend: 0x0, symName: __ZNSt12length_errorC1B8ue170006EPKc, symObjAddr: 0x3A88, symBinAddr: 0x100006B60, symSize: 0x34 }
  - { offsetInCU: 0xE2FD, offset: 0xE2FD, size: 0x8, addend: 0x0, symName: __ZNSt12length_errorC2B8ue170006EPKc, symObjAddr: 0x3ABC, symBinAddr: 0x100006B94, symSize: 0x4C }
  - { offsetInCU: 0xE334, offset: 0xE334, size: 0x8, addend: 0x0, symName: __ZNSt3__114__split_bufferI6pollfdRNS_9allocatorIS1_EEEC2EmmS4_, symObjAddr: 0x3B5C, symBinAddr: 0x100006C34, symSize: 0xD4 }
  - { offsetInCU: 0xE3A6, offset: 0xE3A6, size: 0x8, addend: 0x0, symName: __ZNSt3__117__compressed_pairIP6pollfdRNS_9allocatorIS1_EEEC1B8ue170006IDnS5_EEOT_OT0_, symObjAddr: 0x3C30, symBinAddr: 0x100006D08, symSize: 0x3C }
  - { offsetInCU: 0xE3FC, offset: 0xE3FC, size: 0x8, addend: 0x0, symName: __ZNSt3__114__split_bufferI6pollfdRNS_9allocatorIS1_EEE7__allocB8ue170006Ev, symObjAddr: 0x3CAC, symBinAddr: 0x100006D84, symSize: 0x28 }
  - { offsetInCU: 0xE420, offset: 0xE420, size: 0x8, addend: 0x0, symName: __ZNSt3__114__split_bufferI6pollfdRNS_9allocatorIS1_EEE9__end_capB8ue170006Ev, symObjAddr: 0x3CD4, symBinAddr: 0x100006DAC, symSize: 0x28 }
  - { offsetInCU: 0xE445, offset: 0xE445, size: 0x8, addend: 0x0, symName: __ZNSt3__117__compressed_pairIP6pollfdRNS_9allocatorIS1_EEEC2B8ue170006IDnS5_EEOT_OT0_, symObjAddr: 0x3CFC, symBinAddr: 0x100006DD4, symSize: 0x48 }
  - { offsetInCU: 0xE49C, offset: 0xE49C, size: 0x8, addend: 0x0, symName: __ZNSt3__122__compressed_pair_elemIRNS_9allocatorI6pollfdEELi1ELb0EEC2B8ue170006IS4_vEEOT_, symObjAddr: 0x3D44, symBinAddr: 0x100006E1C, symSize: 0x20 }
  - { offsetInCU: 0xE4DC, offset: 0xE4DC, size: 0x8, addend: 0x0, symName: __ZNSt3__19allocatorI6pollfdE8allocateB8ue170006Em, symObjAddr: 0x3D64, symBinAddr: 0x100006E3C, symSize: 0x58 }
  - { offsetInCU: 0xE50E, offset: 0xE50E, size: 0x8, addend: 0x0, symName: __ZNSt3__117__compressed_pairIP6pollfdRNS_9allocatorIS1_EEE6secondB8ue170006Ev, symObjAddr: 0x3E3C, symBinAddr: 0x100006F14, symSize: 0x28 }
  - { offsetInCU: 0xE533, offset: 0xE533, size: 0x8, addend: 0x0, symName: __ZNSt3__122__compressed_pair_elemIRNS_9allocatorI6pollfdEELi1ELb0EE5__getB8ue170006Ev, symObjAddr: 0x3E64, symBinAddr: 0x100006F3C, symSize: 0x18 }
  - { offsetInCU: 0xE557, offset: 0xE557, size: 0x8, addend: 0x0, symName: __ZNSt3__117__compressed_pairIP6pollfdRNS_9allocatorIS1_EEE5firstB8ue170006Ev, symObjAddr: 0x3E7C, symBinAddr: 0x100006F54, symSize: 0x24 }
  - { offsetInCU: 0xE57C, offset: 0xE57C, size: 0x8, addend: 0x0, symName: __ZNSt3__116reverse_iteratorIP6pollfdEC1B8ue170006ES2_, symObjAddr: 0x3F18, symBinAddr: 0x100006FF0, symSize: 0x34 }
  - { offsetInCU: 0xE5B3, offset: 0xE5B3, size: 0x8, addend: 0x0, symName: __ZNKSt3__116reverse_iteratorIP6pollfdE4baseB8ue170006Ev, symObjAddr: 0x3F4C, symBinAddr: 0x100007024, symSize: 0x18 }
  - { offsetInCU: 0xE5D7, offset: 0xE5D7, size: 0x8, addend: 0x0, symName: __ZNKSt3__16vectorI6pollfdNS_9allocatorIS1_EEE14__annotate_newB8ue170006Em, symObjAddr: 0x3FA0, symBinAddr: 0x100007078, symSize: 0xAC }
  - { offsetInCU: 0xE62D, offset: 0xE62D, size: 0x8, addend: 0x0, symName: __ZNKSt3__111__move_loopINS_17_ClassicAlgPolicyEEclB8ue170006INS_16reverse_iteratorIP6pollfdEES7_S7_EENS_4pairIT_T1_EES9_T0_SA_, symObjAddr: 0x433C, symBinAddr: 0x100007414, symSize: 0xA0 }
  - { offsetInCU: 0xE69C, offset: 0xE69C, size: 0x8, addend: 0x0, symName: __ZNSt3__18_IterOpsINS_17_ClassicAlgPolicyEE11__iter_moveB8ue170006IRNS_16reverse_iteratorIP6pollfdEEEENS_9enable_ifIXsr12is_referenceIDTdeclsr3stdE7declvalIRT_EEEEE5valueEDTclsr3stdE4movedeclsr3stdE7declvalISB_EEEEE4typeEOSA_, symObjAddr: 0x4570, symBinAddr: 0x100007648, symSize: 0x28 }
  - { offsetInCU: 0xE6C8, offset: 0xE6C8, size: 0x8, addend: 0x0, symName: __ZNKSt3__116reverse_iteratorIP6pollfdEdeB8ue170006Ev, symObjAddr: 0x4598, symBinAddr: 0x100007670, symSize: 0x28 }
  - { offsetInCU: 0xE6FB, offset: 0xE6FB, size: 0x8, addend: 0x0, symName: __ZNSt3__116reverse_iteratorIP6pollfdEppB8ue170006Ev, symObjAddr: 0x45C0, symBinAddr: 0x100007698, symSize: 0x20 }
  - { offsetInCU: 0xE720, offset: 0xE720, size: 0x8, addend: 0x0, symName: __ZNSt3__18_IterOpsINS_17_ClassicAlgPolicyEE25__validate_iter_referenceB8ue170006IRNS_16reverse_iteratorIP6pollfdEEEEvv, symObjAddr: 0x45E0, symBinAddr: 0x1000076B8, symSize: 0x4 }
  - { offsetInCU: 0xE73E, offset: 0xE73E, size: 0x8, addend: 0x0, symName: __ZNSt3__118__unwrap_iter_implINS_16reverse_iteratorIP6pollfdEELb0EE8__unwrapB8ue170006ES4_, symObjAddr: 0x45E4, symBinAddr: 0x1000076BC, symSize: 0x24 }
  - { offsetInCU: 0xE766, offset: 0xE766, size: 0x8, addend: 0x0, symName: __ZNSt3__14pairINS_16reverse_iteratorIP6pollfdEES4_EC1B8ue170006IS4_S4_LPv0EEEOT_OT0_, symObjAddr: 0x4608, symBinAddr: 0x1000076E0, symSize: 0x3C }
  - { offsetInCU: 0xE7C3, offset: 0xE7C3, size: 0x8, addend: 0x0, symName: __ZNSt3__14pairINS_16reverse_iteratorIP6pollfdEES4_EC2B8ue170006IS4_S4_LPv0EEEOT_OT0_, symObjAddr: 0x4644, symBinAddr: 0x10000771C, symSize: 0x34 }
  - { offsetInCU: 0xE820, offset: 0xE820, size: 0x8, addend: 0x0, symName: __ZNSt3__118__unwrap_iter_implINS_16reverse_iteratorIP6pollfdEELb0EE8__rewrapB8ue170006ES4_S4_, symObjAddr: 0x4678, symBinAddr: 0x100007750, symSize: 0x2C }
  - { offsetInCU: 0xE84D, offset: 0xE84D, size: 0x8, addend: 0x0, symName: __ZNSt3__116reverse_iteratorIP6pollfdEC2B8ue170006ES2_, symObjAddr: 0x46A4, symBinAddr: 0x10000777C, symSize: 0x28 }
  - { offsetInCU: 0xE884, offset: 0xE884, size: 0x8, addend: 0x0, symName: __ZNSt3__114__split_bufferI6pollfdRNS_9allocatorIS1_EEED2Ev, symObjAddr: 0x46CC, symBinAddr: 0x1000077A4, symSize: 0x8C }
  - { offsetInCU: 0xE8AE, offset: 0xE8AE, size: 0x8, addend: 0x0, symName: __ZNSt3__114__split_bufferI6pollfdRNS_9allocatorIS1_EEE5clearB8ue170006Ev, symObjAddr: 0x4758, symBinAddr: 0x100007830, symSize: 0x28 }
  - { offsetInCU: 0xE8D2, offset: 0xE8D2, size: 0x8, addend: 0x0, symName: __ZNKSt3__114__split_bufferI6pollfdRNS_9allocatorIS1_EEE8capacityB8ue170006Ev, symObjAddr: 0x4780, symBinAddr: 0x100007858, symSize: 0x40 }
  - { offsetInCU: 0xE8F6, offset: 0xE8F6, size: 0x8, addend: 0x0, symName: __ZNSt3__114__split_bufferI6pollfdRNS_9allocatorIS1_EEE17__destruct_at_endB8ue170006EPS1_, symObjAddr: 0x47C0, symBinAddr: 0x100007898, symSize: 0x2C }
  - { offsetInCU: 0xE928, offset: 0xE928, size: 0x8, addend: 0x0, symName: __ZNSt3__114__split_bufferI6pollfdRNS_9allocatorIS1_EEE17__destruct_at_endB8ue170006EPS1_NS_17integral_constantIbLb0EEE, symObjAddr: 0x47EC, symBinAddr: 0x1000078C4, symSize: 0x80 }
  - { offsetInCU: 0xE966, offset: 0xE966, size: 0x8, addend: 0x0, symName: __ZNKSt3__114__split_bufferI6pollfdRNS_9allocatorIS1_EEE9__end_capB8ue170006Ev, symObjAddr: 0x486C, symBinAddr: 0x100007944, symSize: 0x28 }
  - { offsetInCU: 0xE98A, offset: 0xE98A, size: 0x8, addend: 0x0, symName: __ZNKSt3__117__compressed_pairIP6pollfdRNS_9allocatorIS1_EEE5firstB8ue170006Ev, symObjAddr: 0x4894, symBinAddr: 0x10000796C, symSize: 0x24 }
  - { offsetInCU: 0xE9AE, offset: 0xE9AE, size: 0x8, addend: 0x0, symName: __ZNSt3__16vectorI10ClientInfoNS_9allocatorIS1_EEE11__make_iterB8ue170006EPS1_, symObjAddr: 0x48B8, symBinAddr: 0x100007990, symSize: 0x30 }
  - { offsetInCU: 0xE9E2, offset: 0xE9E2, size: 0x8, addend: 0x0, symName: __ZNSt3__111__wrap_iterIP10ClientInfoEC1B8ue170006ES2_, symObjAddr: 0x48E8, symBinAddr: 0x1000079C0, symSize: 0x34 }
  - { offsetInCU: 0xEA19, offset: 0xEA19, size: 0x8, addend: 0x0, symName: __ZNSt3__111__wrap_iterIP10ClientInfoEC2B8ue170006ES2_, symObjAddr: 0x491C, symBinAddr: 0x1000079F4, symSize: 0x20 }
  - { offsetInCU: 0xEA50, offset: 0xEA50, size: 0x8, addend: 0x0, symName: __ZNSt3__112basic_stringIcNS_11char_traitsIcEENS_9allocatorIcEEEC2B8ue170006ILi0EEEPKc, symObjAddr: 0x493C, symBinAddr: 0x100007A14, symSize: 0x58 }
  - { offsetInCU: 0xEA8E, offset: 0xEA8E, size: 0x8, addend: 0x0, symName: __ZNSt3__117__compressed_pairINS_12basic_stringIcNS_11char_traitsIcEENS_9allocatorIcEEE5__repES5_EC1B8ue170006INS_18__default_init_tagESA_EEOT_OT0_, symObjAddr: 0x4994, symBinAddr: 0x100007A6C, symSize: 0x3C }
  - { offsetInCU: 0xEAE5, offset: 0xEAE5, size: 0x8, addend: 0x0, symName: __ZNSt3__111char_traitsIcE6lengthB8ue170006EPKc, symObjAddr: 0x49D0, symBinAddr: 0x100007AA8, symSize: 0x34 }
  - { offsetInCU: 0xEB08, offset: 0xEB08, size: 0x8, addend: 0x0, symName: __ZNSt3__117__compressed_pairINS_12basic_stringIcNS_11char_traitsIcEENS_9allocatorIcEEE5__repES5_EC2B8ue170006INS_18__default_init_tagESA_EEOT_OT0_, symObjAddr: 0x4A04, symBinAddr: 0x100007ADC, symSize: 0x3C }
  - { offsetInCU: 0xEB5F, offset: 0xEB5F, size: 0x8, addend: 0x0, symName: __ZNSt3__122__compressed_pair_elemINS_12basic_stringIcNS_11char_traitsIcEENS_9allocatorIcEEE5__repELi0ELb0EEC2B8ue170006ENS_18__default_init_tagE, symObjAddr: 0x4A40, symBinAddr: 0x100007B18, symSize: 0x14 }
  - { offsetInCU: 0xEB92, offset: 0xEB92, size: 0x8, addend: 0x0, symName: __ZNSt3__122__compressed_pair_elemINS_9allocatorIcEELi1ELb1EEC2B8ue170006ENS_18__default_init_tagE, symObjAddr: 0x4A54, symBinAddr: 0x100007B2C, symSize: 0x2C }
  - { offsetInCU: 0xEBC5, offset: 0xEBC5, size: 0x8, addend: 0x0, symName: __ZNSt3__19allocatorIcEC2B8ue170006Ev, symObjAddr: 0x4A80, symBinAddr: 0x100007B58, symSize: 0x2C }
  - { offsetInCU: 0xEBEE, offset: 0xEBEE, size: 0x8, addend: 0x0, symName: __ZNSt3__116__non_trivial_ifILb1ENS_9allocatorIcEEEC2B8ue170006Ev, symObjAddr: 0x4AAC, symBinAddr: 0x100007B84, symSize: 0x14 }
  - { offsetInCU: 0xEC16, offset: 0xEC16, size: 0x8, addend: 0x0, symName: __ZNSt3__112basic_stringIcNS_11char_traitsIcEENS_9allocatorIcEEE15__make_iteratorB8ue170006EPc, symObjAddr: 0x4AE4, symBinAddr: 0x100007BBC, symSize: 0x30 }
  - { offsetInCU: 0xEC49, offset: 0xEC49, size: 0x8, addend: 0x0, symName: __ZNSt3__112basic_stringIcNS_11char_traitsIcEENS_9allocatorIcEEE13__get_pointerB8ue170006Ev, symObjAddr: 0x4B14, symBinAddr: 0x100007BEC, symSize: 0x54 }
  - { offsetInCU: 0xEC6E, offset: 0xEC6E, size: 0x8, addend: 0x0, symName: __ZNSt3__111__wrap_iterIPcEC1B8ue170006ES1_, symObjAddr: 0x4B68, symBinAddr: 0x100007C40, symSize: 0x34 }
  - { offsetInCU: 0xECA5, offset: 0xECA5, size: 0x8, addend: 0x0, symName: __ZNSt3__111__wrap_iterIPcEC2B8ue170006ES1_, symObjAddr: 0x4B9C, symBinAddr: 0x100007C74, symSize: 0x20 }
  - { offsetInCU: 0xECDB, offset: 0xECDB, size: 0x8, addend: 0x0, symName: __ZNSt3__112basic_stringIcNS_11char_traitsIcEENS_9allocatorIcEEE18__get_long_pointerB8ue170006Ev, symObjAddr: 0x4BBC, symBinAddr: 0x100007C94, symSize: 0x28 }
  - { offsetInCU: 0xECFF, offset: 0xECFF, size: 0x8, addend: 0x0, symName: __ZNSt3__112basic_stringIcNS_11char_traitsIcEENS_9allocatorIcEEE19__get_short_pointerB8ue170006Ev, symObjAddr: 0x4BE4, symBinAddr: 0x100007CBC, symSize: 0x28 }
  - { offsetInCU: 0xED23, offset: 0xED23, size: 0x8, addend: 0x0, symName: __ZNSt3__117__compressed_pairINS_12basic_stringIcNS_11char_traitsIcEENS_9allocatorIcEEE5__repES5_E5firstB8ue170006Ev, symObjAddr: 0x4C0C, symBinAddr: 0x100007CE4, symSize: 0x24 }
  - { offsetInCU: 0xED48, offset: 0xED48, size: 0x8, addend: 0x0, symName: __ZNSt3__122__compressed_pair_elemINS_12basic_stringIcNS_11char_traitsIcEENS_9allocatorIcEEE5__repELi0ELb0EE5__getB8ue170006Ev, symObjAddr: 0x4C30, symBinAddr: 0x100007D08, symSize: 0x14 }
  - { offsetInCU: 0xED6D, offset: 0xED6D, size: 0x8, addend: 0x0, symName: __ZNSt3__114pointer_traitsIPcE10pointer_toB8ue170006ERc, symObjAddr: 0x4C44, symBinAddr: 0x100007D1C, symSize: 0x14 }
  - { offsetInCU: 0xED90, offset: 0xED90, size: 0x8, addend: 0x0, symName: __ZNSt3__111__wrap_iterIPcEppB8ue170006Ev, symObjAddr: 0x4D04, symBinAddr: 0x100007DDC, symSize: 0x20 }
  - { offsetInCU: 0xEDB5, offset: 0xEDB5, size: 0x8, addend: 0x0, symName: __ZNKSt3__111__wrap_iterIPcEdeB8ue170006Ev, symObjAddr: 0x4D24, symBinAddr: 0x100007DFC, symSize: 0x18 }
  - { offsetInCU: 0xEDDA, offset: 0xEDDA, size: 0x8, addend: 0x0, symName: __ZNSt3__118__unwrap_iter_implINS_11__wrap_iterIPcEELb1EE8__rewrapB8ue170006ES3_S2_, symObjAddr: 0x4E2C, symBinAddr: 0x100007F04, symSize: 0x54 }
  - { offsetInCU: 0xEE0A, offset: 0xEE0A, size: 0x8, addend: 0x0, symName: __ZNKSt3__111__wrap_iterIPcEplB8ue170006El, symObjAddr: 0x4E80, symBinAddr: 0x100007F58, symSize: 0x3C }
  - { offsetInCU: 0xEE4B, offset: 0xEE4B, size: 0x8, addend: 0x0, symName: __ZNSt3__111__wrap_iterIPcEpLB8ue170006El, symObjAddr: 0x4EE0, symBinAddr: 0x100007FB8, symSize: 0x28 }
  - { offsetInCU: 0xEE83, offset: 0xEE83, size: 0x8, addend: 0x0, symName: __ZNSt3__119__to_address_helperINS_11__wrap_iterIPcEEvE6__callB8ue170006ERKS3_, symObjAddr: 0x4F08, symBinAddr: 0x100007FE0, symSize: 0x30 }
  - { offsetInCU: 0xEEA6, offset: 0xEEA6, size: 0x8, addend: 0x0, symName: __ZNSt3__114pointer_traitsINS_11__wrap_iterIPcEEE10to_addressB8ue170006ES3_, symObjAddr: 0x4F38, symBinAddr: 0x100008010, symSize: 0x2C }
  - { offsetInCU: 0xEEC9, offset: 0xEEC9, size: 0x8, addend: 0x0, symName: __ZNKSt3__111__wrap_iterIPcE4baseB8ue170006Ev, symObjAddr: 0x4F78, symBinAddr: 0x100008050, symSize: 0x18 }
  - { offsetInCU: 0xEEEE, offset: 0xEEEE, size: 0x8, addend: 0x0, symName: __ZNSt3__118__unwrap_iter_implINS_11__wrap_iterIPcEELb1EE8__unwrapB8ue170006ES3_, symObjAddr: 0x4FD0, symBinAddr: 0x1000080A8, symSize: 0x28 }
  - { offsetInCU: 0xEF11, offset: 0xEF11, size: 0x8, addend: 0x0, symName: __ZNKSt3__111__wrap_iterIPKcE4baseB8ue170006Ev, symObjAddr: 0x50C0, symBinAddr: 0x100008198, symSize: 0x18 }
  - { offsetInCU: 0xEF36, offset: 0xEF36, size: 0x8, addend: 0x0, symName: __ZNSt3__111__wrap_iterIPKcEC2B8ue170006IPcEERKNS0_IT_EEPNS_9enable_ifIXsr14is_convertibleIS6_S2_EE5valueEvE4typeE, symObjAddr: 0x50D8, symBinAddr: 0x1000081B0, symSize: 0x40 }
  - { offsetInCU: 0xEF80, offset: 0xEF80, size: 0x8, addend: 0x0, symName: __ZNSt3__112basic_stringIcNS_11char_traitsIcEENS_9allocatorIcEEEC2B8ue170006Ev, symObjAddr: 0x5118, symBinAddr: 0x1000081F0, symSize: 0x48 }
  - { offsetInCU: 0xEFA8, offset: 0xEFA8, size: 0x8, addend: 0x0, symName: __ZNSt3__112basic_stringIcNS_11char_traitsIcEENS_9allocatorIcEEE14__default_initB8ue170006Ev, symObjAddr: 0x5160, symBinAddr: 0x100008238, symSize: 0x40 }
  - { offsetInCU: 0xEFCC, offset: 0xEFCC, size: 0x8, addend: 0x0, symName: __ZNSt3__16vectorI10ClientInfoNS_9allocatorIS1_EEE9__end_capB8ue170006Ev, symObjAddr: 0x51A0, symBinAddr: 0x100008278, symSize: 0x28 }
  - { offsetInCU: 0xEFF0, offset: 0xEFF0, size: 0x8, addend: 0x0, symName: __ZNSt3__16vectorI10ClientInfoNS_9allocatorIS1_EEE22__construct_one_at_endB8ue170006IJRKS1_EEEvDpOT_, symObjAddr: 0x51C8, symBinAddr: 0x1000082A0, symSize: 0x90 }
  - { offsetInCU: 0xF03D, offset: 0xF03D, size: 0x8, addend: 0x0, symName: __ZNSt3__16vectorI10ClientInfoNS_9allocatorIS1_EEE21__push_back_slow_pathIRKS1_EEvOT_, symObjAddr: 0x5258, symBinAddr: 0x100008330, symSize: 0xD8 }
  - { offsetInCU: 0xF099, offset: 0xF099, size: 0x8, addend: 0x0, symName: __ZNSt3__117__compressed_pairIP10ClientInfoNS_9allocatorIS1_EEE5firstB8ue170006Ev, symObjAddr: 0x5330, symBinAddr: 0x100008408, symSize: 0x24 }
  - { offsetInCU: 0xF0BE, offset: 0xF0BE, size: 0x8, addend: 0x0, symName: __ZNSt3__122__compressed_pair_elemIP10ClientInfoLi0ELb0EE5__getB8ue170006Ev, symObjAddr: 0x5354, symBinAddr: 0x10000842C, symSize: 0x14 }
  - { offsetInCU: 0xF0FC, offset: 0xF0FC, size: 0x8, addend: 0x0, symName: __ZNSt3__16vectorI10ClientInfoNS_9allocatorIS1_EEE21_ConstructTransactionC1B8ue170006ERS4_m, symObjAddr: 0x5368, symBinAddr: 0x100008440, symSize: 0x3C }
  - { offsetInCU: 0xF143, offset: 0xF143, size: 0x8, addend: 0x0, symName: __ZNSt3__116allocator_traitsINS_9allocatorI10ClientInfoEEE9constructB8ue170006IS2_JRKS2_EvEEvRS3_PT_DpOT0_, symObjAddr: 0x53A4, symBinAddr: 0x10000847C, symSize: 0x34 }
  - { offsetInCU: 0xF19A, offset: 0xF19A, size: 0x8, addend: 0x0, symName: __ZNSt3__16vectorI10ClientInfoNS_9allocatorIS1_EEE21_ConstructTransactionD1B8ue170006Ev, symObjAddr: 0x53D8, symBinAddr: 0x1000084B0, symSize: 0x2C }
  - { offsetInCU: 0xF1C3, offset: 0xF1C3, size: 0x8, addend: 0x0, symName: __ZNSt3__16vectorI10ClientInfoNS_9allocatorIS1_EEE21_ConstructTransactionC2B8ue170006ERS4_m, symObjAddr: 0x5404, symBinAddr: 0x1000084DC, symSize: 0x44 }
  - { offsetInCU: 0xF209, offset: 0xF209, size: 0x8, addend: 0x0, symName: __ZNSt3__19allocatorI10ClientInfoE9constructB8ue170006IS1_JRKS1_EEEvPT_DpOT0_, symObjAddr: 0x5448, symBinAddr: 0x100008520, symSize: 0x30 }
  - { offsetInCU: 0xF25E, offset: 0xF25E, size: 0x8, addend: 0x0, symName: __ZN10ClientInfoC1ERKS_, symObjAddr: 0x5478, symBinAddr: 0x100008550, symSize: 0x34 }
  - { offsetInCU: 0xF292, offset: 0xF292, size: 0x8, addend: 0x0, symName: __ZN10ClientInfoC2ERKS_, symObjAddr: 0x54AC, symBinAddr: 0x100008584, symSize: 0x48 }
  - { offsetInCU: 0xF2C6, offset: 0xF2C6, size: 0x8, addend: 0x0, symName: __ZNSt3__16vectorI10ClientInfoNS_9allocatorIS1_EEE21_ConstructTransactionD2B8ue170006Ev, symObjAddr: 0x54F4, symBinAddr: 0x1000085CC, symSize: 0x20 }
  - { offsetInCU: 0xF2EE, offset: 0xF2EE, size: 0x8, addend: 0x0, symName: __ZNKSt3__16vectorI10ClientInfoNS_9allocatorIS1_EEE11__recommendB8ue170006Em, symObjAddr: 0x5514, symBinAddr: 0x1000085EC, symSize: 0xB4 }
  - { offsetInCU: 0xF342, offset: 0xF342, size: 0x8, addend: 0x0, symName: __ZNSt3__114__split_bufferI10ClientInfoRNS_9allocatorIS1_EEEC1EmmS4_, symObjAddr: 0x55C8, symBinAddr: 0x1000086A0, symSize: 0x44 }
  - { offsetInCU: 0xF397, offset: 0xF397, size: 0x8, addend: 0x0, symName: __ZNSt3__114__split_bufferI10ClientInfoRNS_9allocatorIS1_EEED1Ev, symObjAddr: 0x571C, symBinAddr: 0x1000087F4, symSize: 0x2C }
  - { offsetInCU: 0xF3C1, offset: 0xF3C1, size: 0x8, addend: 0x0, symName: __ZNKSt3__16vectorI10ClientInfoNS_9allocatorIS1_EEE8max_sizeEv, symObjAddr: 0x5748, symBinAddr: 0x100008820, symSize: 0x60 }
  - { offsetInCU: 0xF3E7, offset: 0xF3E7, size: 0x8, addend: 0x0, symName: __ZNKSt3__16vectorI10ClientInfoNS_9allocatorIS1_EEE20__throw_length_errorB8ue170006Ev, symObjAddr: 0x57A8, symBinAddr: 0x100008880, symSize: 0x1C }
  - { offsetInCU: 0xF416, offset: 0xF416, size: 0x8, addend: 0x0, symName: __ZNSt3__116allocator_traitsINS_9allocatorI10ClientInfoEEE8max_sizeB8ue170006IS3_vEEmRKS3_, symObjAddr: 0x57C4, symBinAddr: 0x10000889C, symSize: 0x24 }
  - { offsetInCU: 0xF443, offset: 0xF443, size: 0x8, addend: 0x0, symName: __ZNKSt3__16vectorI10ClientInfoNS_9allocatorIS1_EEE7__allocB8ue170006Ev, symObjAddr: 0x57E8, symBinAddr: 0x1000088C0, symSize: 0x28 }
  - { offsetInCU: 0xF468, offset: 0xF468, size: 0x8, addend: 0x0, symName: __ZNKSt3__19allocatorI10ClientInfoE8max_sizeB8ue170006Ev, symObjAddr: 0x5810, symBinAddr: 0x1000088E8, symSize: 0x14 }
  - { offsetInCU: 0xF48C, offset: 0xF48C, size: 0x8, addend: 0x0, symName: __ZNKSt3__117__compressed_pairIP10ClientInfoNS_9allocatorIS1_EEE6secondB8ue170006Ev, symObjAddr: 0x5824, symBinAddr: 0x1000088FC, symSize: 0x24 }
  - { offsetInCU: 0xF4B1, offset: 0xF4B1, size: 0x8, addend: 0x0, symName: __ZNKSt3__122__compressed_pair_elemINS_9allocatorI10ClientInfoEELi1ELb1EE5__getB8ue170006Ev, symObjAddr: 0x5848, symBinAddr: 0x100008920, symSize: 0x14 }
  - { offsetInCU: 0xF4D6, offset: 0xF4D6, size: 0x8, addend: 0x0, symName: __ZNSt3__114__split_bufferI10ClientInfoRNS_9allocatorIS1_EEEC2EmmS4_, symObjAddr: 0x585C, symBinAddr: 0x100008934, symSize: 0xD4 }
  - { offsetInCU: 0xF548, offset: 0xF548, size: 0x8, addend: 0x0, symName: __ZNSt3__117__compressed_pairIP10ClientInfoRNS_9allocatorIS1_EEEC1B8ue170006IDnS5_EEOT_OT0_, symObjAddr: 0x5930, symBinAddr: 0x100008A08, symSize: 0x3C }
  - { offsetInCU: 0xF59E, offset: 0xF59E, size: 0x8, addend: 0x0, symName: __ZNSt3__114__split_bufferI10ClientInfoRNS_9allocatorIS1_EEE7__allocB8ue170006Ev, symObjAddr: 0x59AC, symBinAddr: 0x100008A84, symSize: 0x28 }
  - { offsetInCU: 0xF5C2, offset: 0xF5C2, size: 0x8, addend: 0x0, symName: __ZNSt3__114__split_bufferI10ClientInfoRNS_9allocatorIS1_EEE9__end_capB8ue170006Ev, symObjAddr: 0x59D4, symBinAddr: 0x100008AAC, symSize: 0x28 }
  - { offsetInCU: 0xF5E7, offset: 0xF5E7, size: 0x8, addend: 0x0, symName: __ZNSt3__117__compressed_pairIP10ClientInfoRNS_9allocatorIS1_EEEC2B8ue170006IDnS5_EEOT_OT0_, symObjAddr: 0x59FC, symBinAddr: 0x100008AD4, symSize: 0x48 }
  - { offsetInCU: 0xF63E, offset: 0xF63E, size: 0x8, addend: 0x0, symName: __ZNSt3__122__compressed_pair_elemIRNS_9allocatorI10ClientInfoEELi1ELb0EEC2B8ue170006IS4_vEEOT_, symObjAddr: 0x5A44, symBinAddr: 0x100008B1C, symSize: 0x20 }
  - { offsetInCU: 0xF67E, offset: 0xF67E, size: 0x8, addend: 0x0, symName: __ZNSt3__19allocatorI10ClientInfoE8allocateB8ue170006Em, symObjAddr: 0x5A64, symBinAddr: 0x100008B3C, symSize: 0x58 }
  - { offsetInCU: 0xF6B0, offset: 0xF6B0, size: 0x8, addend: 0x0, symName: __ZNSt3__117__compressed_pairIP10ClientInfoRNS_9allocatorIS1_EEE6secondB8ue170006Ev, symObjAddr: 0x5ABC, symBinAddr: 0x100008B94, symSize: 0x28 }
  - { offsetInCU: 0xF6D5, offset: 0xF6D5, size: 0x8, addend: 0x0, symName: __ZNSt3__122__compressed_pair_elemIRNS_9allocatorI10ClientInfoEELi1ELb0EE5__getB8ue170006Ev, symObjAddr: 0x5AE4, symBinAddr: 0x100008BBC, symSize: 0x18 }
  - { offsetInCU: 0xF6F9, offset: 0xF6F9, size: 0x8, addend: 0x0, symName: __ZNSt3__117__compressed_pairIP10ClientInfoRNS_9allocatorIS1_EEE5firstB8ue170006Ev, symObjAddr: 0x5AFC, symBinAddr: 0x100008BD4, symSize: 0x24 }
  - { offsetInCU: 0xF71E, offset: 0xF71E, size: 0x8, addend: 0x0, symName: __ZNSt3__116reverse_iteratorIP10ClientInfoEC1B8ue170006ES2_, symObjAddr: 0x5C4C, symBinAddr: 0x100008D24, symSize: 0x34 }
  - { offsetInCU: 0xF755, offset: 0xF755, size: 0x8, addend: 0x0, symName: __ZNKSt3__116reverse_iteratorIP10ClientInfoE4baseB8ue170006Ev, symObjAddr: 0x5C80, symBinAddr: 0x100008D58, symSize: 0x18 }
  - { offsetInCU: 0xF779, offset: 0xF779, size: 0x8, addend: 0x0, symName: __ZNKSt3__16vectorI10ClientInfoNS_9allocatorIS1_EEE14__annotate_newB8ue170006Em, symObjAddr: 0x5CD4, symBinAddr: 0x100008DAC, symSize: 0xAC }
  - { offsetInCU: 0xF7AD, offset: 0xF7AD, size: 0x8, addend: 0x0, symName: __ZNSt3__129_AllocatorDestroyRangeReverseINS_9allocatorI10ClientInfoEENS_16reverse_iteratorIPS2_EEEC1B8ue170006ERS3_RS6_S9_, symObjAddr: 0x5DCC, symBinAddr: 0x100008EA4, symSize: 0x44 }
  - { offsetInCU: 0xF808, offset: 0xF808, size: 0x8, addend: 0x0, symName: __ZNSt3__116allocator_traitsINS_9allocatorI10ClientInfoEEE9constructB8ue170006IS2_JS2_EvEEvRS3_PT_DpOT0_, symObjAddr: 0x5E58, symBinAddr: 0x100008F30, symSize: 0x34 }
  - { offsetInCU: 0xF85F, offset: 0xF85F, size: 0x8, addend: 0x0, symName: __ZNKSt3__116reverse_iteratorIP10ClientInfoEdeB8ue170006Ev, symObjAddr: 0x5EB0, symBinAddr: 0x100008F88, symSize: 0x28 }
  - { offsetInCU: 0xF892, offset: 0xF892, size: 0x8, addend: 0x0, symName: __ZNSt3__116reverse_iteratorIP10ClientInfoEppB8ue170006Ev, symObjAddr: 0x5ED8, symBinAddr: 0x100008FB0, symSize: 0x20 }
  - { offsetInCU: 0xF8B7, offset: 0xF8B7, size: 0x8, addend: 0x0, symName: __ZNSt3__128__exception_guard_exceptionsINS_29_AllocatorDestroyRangeReverseINS_9allocatorI10ClientInfoEENS_16reverse_iteratorIPS3_EEEEE10__completeB8ue170006Ev, symObjAddr: 0x5EF8, symBinAddr: 0x100008FD0, symSize: 0x1C }
  - { offsetInCU: 0xF8DC, offset: 0xF8DC, size: 0x8, addend: 0x0, symName: __ZNSt3__128__exception_guard_exceptionsINS_29_AllocatorDestroyRangeReverseINS_9allocatorI10ClientInfoEENS_16reverse_iteratorIPS3_EEEEED1B8ue170006Ev, symObjAddr: 0x5F14, symBinAddr: 0x100008FEC, symSize: 0x2C }
  - { offsetInCU: 0xF905, offset: 0xF905, size: 0x8, addend: 0x0, symName: __ZNSt3__128__exception_guard_exceptionsINS_29_AllocatorDestroyRangeReverseINS_9allocatorI10ClientInfoEENS_16reverse_iteratorIPS3_EEEEEC1B8ue170006ES8_, symObjAddr: 0x5F40, symBinAddr: 0x100009018, symSize: 0x34 }
  - { offsetInCU: 0xF93D, offset: 0xF93D, size: 0x8, addend: 0x0, symName: __ZNSt3__128__exception_guard_exceptionsINS_29_AllocatorDestroyRangeReverseINS_9allocatorI10ClientInfoEENS_16reverse_iteratorIPS3_EEEEEC2B8ue170006ES8_, symObjAddr: 0x5F74, symBinAddr: 0x10000904C, symSize: 0x30 }
  - { offsetInCU: 0xF975, offset: 0xF975, size: 0x8, addend: 0x0, symName: __ZNSt3__129_AllocatorDestroyRangeReverseINS_9allocatorI10ClientInfoEENS_16reverse_iteratorIPS2_EEEC2B8ue170006ERS3_RS6_S9_, symObjAddr: 0x5FA4, symBinAddr: 0x10000907C, symSize: 0x38 }
  - { offsetInCU: 0xF9CA, offset: 0xF9CA, size: 0x8, addend: 0x0, symName: __ZNSt3__19allocatorI10ClientInfoE9constructB8ue170006IS1_JS1_EEEvPT_DpOT0_, symObjAddr: 0x5FDC, symBinAddr: 0x1000090B4, symSize: 0x30 }
  - { offsetInCU: 0xFA1F, offset: 0xFA1F, size: 0x8, addend: 0x0, symName: __ZN10ClientInfoC1EOS_, symObjAddr: 0x600C, symBinAddr: 0x1000090E4, symSize: 0x34 }
  - { offsetInCU: 0xFA53, offset: 0xFA53, size: 0x8, addend: 0x0, symName: __ZN10ClientInfoC2EOS_, symObjAddr: 0x6040, symBinAddr: 0x100009118, symSize: 0x48 }
  - { offsetInCU: 0xFA87, offset: 0xFA87, size: 0x8, addend: 0x0, symName: __ZNSt3__112basic_stringIcNS_11char_traitsIcEENS_9allocatorIcEEEC1B8ue170006EOS5_, symObjAddr: 0x6088, symBinAddr: 0x100009160, symSize: 0x34 }
  - { offsetInCU: 0xFABF, offset: 0xFABF, size: 0x8, addend: 0x0, symName: __ZNSt3__112basic_stringIcNS_11char_traitsIcEENS_9allocatorIcEEEC2B8ue170006EOS5_, symObjAddr: 0x60BC, symBinAddr: 0x100009194, symSize: 0x48 }
  - { offsetInCU: 0xFAFC, offset: 0xFAFC, size: 0x8, addend: 0x0, symName: __ZNSt3__119__to_address_helperINS_16reverse_iteratorIP10ClientInfoEEvE6__callB8ue170006ERKS4_, symObjAddr: 0x6104, symBinAddr: 0x1000091DC, symSize: 0x38 }
  - { offsetInCU: 0xFB1E, offset: 0xFB1E, size: 0x8, addend: 0x0, symName: __ZNKSt3__116reverse_iteratorIP10ClientInfoEptB8ue170006Ev, symObjAddr: 0x613C, symBinAddr: 0x100009214, symSize: 0x24 }
  - { offsetInCU: 0xFB43, offset: 0xFB43, size: 0x8, addend: 0x0, symName: __ZNSt3__128__exception_guard_exceptionsINS_29_AllocatorDestroyRangeReverseINS_9allocatorI10ClientInfoEENS_16reverse_iteratorIPS3_EEEEED2B8ue170006Ev, symObjAddr: 0x6160, symBinAddr: 0x100009238, symSize: 0x50 }
  - { offsetInCU: 0xFB6B, offset: 0xFB6B, size: 0x8, addend: 0x0, symName: __ZNKSt3__129_AllocatorDestroyRangeReverseINS_9allocatorI10ClientInfoEENS_16reverse_iteratorIPS2_EEEclB8ue170006Ev, symObjAddr: 0x61B0, symBinAddr: 0x100009288, symSize: 0xB4 }
  - { offsetInCU: 0xFB91, offset: 0xFB91, size: 0x8, addend: 0x0, symName: __ZNSt3__116reverse_iteratorINS0_IP10ClientInfoEEEC1B8ue170006ES3_, symObjAddr: 0x62D4, symBinAddr: 0x1000093AC, symSize: 0x3C }
  - { offsetInCU: 0xFBC7, offset: 0xFBC7, size: 0x8, addend: 0x0, symName: __ZNSt3__116reverse_iteratorINS0_IP10ClientInfoEEEppB8ue170006Ev, symObjAddr: 0x6394, symBinAddr: 0x10000946C, symSize: 0x30 }
  - { offsetInCU: 0xFBEC, offset: 0xFBEC, size: 0x8, addend: 0x0, symName: __ZNKSt3__116reverse_iteratorINS0_IP10ClientInfoEEE4baseB8ue170006Ev, symObjAddr: 0x63C4, symBinAddr: 0x10000949C, symSize: 0x24 }
  - { offsetInCU: 0xFC16, offset: 0xFC16, size: 0x8, addend: 0x0, symName: __ZNSt3__119__to_address_helperINS_16reverse_iteratorINS1_IP10ClientInfoEEEEvE6__callB8ue170006ERKS5_, symObjAddr: 0x63E8, symBinAddr: 0x1000094C0, symSize: 0x38 }
  - { offsetInCU: 0xFC38, offset: 0xFC38, size: 0x8, addend: 0x0, symName: __ZNKSt3__116reverse_iteratorINS0_IP10ClientInfoEEEptB8ue170006Ev, symObjAddr: 0x6420, symBinAddr: 0x1000094F8, symSize: 0x24 }
  - { offsetInCU: 0xFC5C, offset: 0xFC5C, size: 0x8, addend: 0x0, symName: __ZNKSt3__116reverse_iteratorINS0_IP10ClientInfoEEEdeB8ue170006Ev, symObjAddr: 0x6444, symBinAddr: 0x10000951C, symSize: 0x34 }
  - { offsetInCU: 0xFC8F, offset: 0xFC8F, size: 0x8, addend: 0x0, symName: __ZNSt3__116reverse_iteratorIP10ClientInfoEmmB8ue170006Ev, symObjAddr: 0x6478, symBinAddr: 0x100009550, symSize: 0x20 }
  - { offsetInCU: 0xFCB4, offset: 0xFCB4, size: 0x8, addend: 0x0, symName: __ZNSt3__116reverse_iteratorINS0_IP10ClientInfoEEEC2B8ue170006ES3_, symObjAddr: 0x6498, symBinAddr: 0x100009570, symSize: 0x2C }
  - { offsetInCU: 0xFCEB, offset: 0xFCEB, size: 0x8, addend: 0x0, symName: __ZNSt3__116reverse_iteratorIP10ClientInfoEC2B8ue170006ES2_, symObjAddr: 0x64C4, symBinAddr: 0x10000959C, symSize: 0x28 }
  - { offsetInCU: 0xFD22, offset: 0xFD22, size: 0x8, addend: 0x0, symName: __ZNSt3__114__split_bufferI10ClientInfoRNS_9allocatorIS1_EEED2Ev, symObjAddr: 0x64EC, symBinAddr: 0x1000095C4, symSize: 0x8C }
  - { offsetInCU: 0xFD4C, offset: 0xFD4C, size: 0x8, addend: 0x0, symName: __ZNSt3__114__split_bufferI10ClientInfoRNS_9allocatorIS1_EEE5clearB8ue170006Ev, symObjAddr: 0x6578, symBinAddr: 0x100009650, symSize: 0x28 }
  - { offsetInCU: 0xFD70, offset: 0xFD70, size: 0x8, addend: 0x0, symName: __ZNKSt3__114__split_bufferI10ClientInfoRNS_9allocatorIS1_EEE8capacityB8ue170006Ev, symObjAddr: 0x65A0, symBinAddr: 0x100009678, symSize: 0x40 }
  - { offsetInCU: 0xFD94, offset: 0xFD94, size: 0x8, addend: 0x0, symName: __ZNSt3__114__split_bufferI10ClientInfoRNS_9allocatorIS1_EEE17__destruct_at_endB8ue170006EPS1_, symObjAddr: 0x65E0, symBinAddr: 0x1000096B8, symSize: 0x2C }
  - { offsetInCU: 0xFDC6, offset: 0xFDC6, size: 0x8, addend: 0x0, symName: __ZNSt3__114__split_bufferI10ClientInfoRNS_9allocatorIS1_EEE17__destruct_at_endB8ue170006EPS1_NS_17integral_constantIbLb0EEE, symObjAddr: 0x660C, symBinAddr: 0x1000096E4, symSize: 0x80 }
  - { offsetInCU: 0xFE04, offset: 0xFE04, size: 0x8, addend: 0x0, symName: __ZNKSt3__114__split_bufferI10ClientInfoRNS_9allocatorIS1_EEE9__end_capB8ue170006Ev, symObjAddr: 0x668C, symBinAddr: 0x100009764, symSize: 0x28 }
  - { offsetInCU: 0xFE28, offset: 0xFE28, size: 0x8, addend: 0x0, symName: __ZNKSt3__117__compressed_pairIP10ClientInfoRNS_9allocatorIS1_EEE5firstB8ue170006Ev, symObjAddr: 0x66B4, symBinAddr: 0x10000978C, symSize: 0x24 }
  - { offsetInCU: 0xFE57, offset: 0xFE57, size: 0x8, addend: 0x0, symName: '__ZZ4mainENK3$_0clERK10ClientInfo', symObjAddr: 0x66D8, symBinAddr: 0x1000097B0, symSize: 0x30 }
  - { offsetInCU: 0xFE8E, offset: 0xFE8E, size: 0x8, addend: 0x0, symName: __ZNSt3__112basic_stringIcNS_11char_traitsIcEENS_9allocatorIcEEE6appendB8ue170006ERKS5_, symObjAddr: 0x6708, symBinAddr: 0x1000097E0, symSize: 0x4C }
  - { offsetInCU: 0xFEC1, offset: 0xFEC1, size: 0x8, addend: 0x0, symName: __ZNKSt3__112basic_stringIcNS_11char_traitsIcEENS_9allocatorIcEEE15__get_long_sizeB8ue170006Ev, symObjAddr: 0x6754, symBinAddr: 0x10000982C, symSize: 0x28 }
  - { offsetInCU: 0xFEE5, offset: 0xFEE5, size: 0x8, addend: 0x0, symName: __ZNKSt3__112basic_stringIcNS_11char_traitsIcEENS_9allocatorIcEEE16__get_short_sizeB8ue170006Ev, symObjAddr: 0x677C, symBinAddr: 0x100009854, symSize: 0x34 }
  - { offsetInCU: 0xFF14, offset: 0xFF14, size: 0x8, addend: 0x0, symName: __ZNSt3__116allocator_traitsINS_9allocatorIcEEE37select_on_container_copy_constructionB8ue170006IS2_vvEES2_RKS2_, symObjAddr: 0x67B0, symBinAddr: 0x100009888, symSize: 0x10 }
  - { offsetInCU: 0xFF42, offset: 0xFF42, size: 0x8, addend: 0x0, symName: __ZNKSt3__112basic_stringIcNS_11char_traitsIcEENS_9allocatorIcEEE13get_allocatorB8ue170006Ev, symObjAddr: 0x67C0, symBinAddr: 0x100009898, symSize: 0x24 }
  - { offsetInCU: 0xFF67, offset: 0xFF67, size: 0x8, addend: 0x0, symName: __ZNSt3__112basic_stringIcNS_11char_traitsIcEENS_9allocatorIcEEEC1B8ue170006ENS_24__uninitialized_size_tagEmRKS4_, symObjAddr: 0x67E4, symBinAddr: 0x1000098BC, symSize: 0x3C }
  - { offsetInCU: 0xFFB9, offset: 0xFFB9, size: 0x8, addend: 0x0, symName: __ZNSt3__111char_traitsIcE4copyB8ue170006EPcPKcm, symObjAddr: 0x6820, symBinAddr: 0x1000098F8, symSize: 0x40 }
  - { offsetInCU: 0xFFF8, offset: 0xFFF8, size: 0x8, addend: 0x0, symName: __ZNSt3__111char_traitsIcE6assignB8ue170006EPcmc, symObjAddr: 0x6860, symBinAddr: 0x100009938, symSize: 0x44 }
  - { offsetInCU: 0x10036, offset: 0x10036, size: 0x8, addend: 0x0, symName: __ZNKSt3__112basic_stringIcNS_11char_traitsIcEENS_9allocatorIcEEE7__allocB8ue170006Ev, symObjAddr: 0x68A4, symBinAddr: 0x10000997C, symSize: 0x24 }
  - { offsetInCU: 0x1005A, offset: 0x1005A, size: 0x8, addend: 0x0, symName: __ZNKSt3__117__compressed_pairINS_12basic_stringIcNS_11char_traitsIcEENS_9allocatorIcEEE5__repES5_E6secondB8ue170006Ev, symObjAddr: 0x68C8, symBinAddr: 0x1000099A0, symSize: 0x24 }
  - { offsetInCU: 0x1007F, offset: 0x1007F, size: 0x8, addend: 0x0, symName: __ZNKSt3__122__compressed_pair_elemINS_9allocatorIcEELi1ELb1EE5__getB8ue170006Ev, symObjAddr: 0x68EC, symBinAddr: 0x1000099C4, symSize: 0x14 }
  - { offsetInCU: 0x100A4, offset: 0x100A4, size: 0x8, addend: 0x0, symName: __ZNSt3__112basic_stringIcNS_11char_traitsIcEENS_9allocatorIcEEEC2B8ue170006ENS_24__uninitialized_size_tagEmRKS4_, symObjAddr: 0x6900, symBinAddr: 0x1000099D8, symSize: 0x110 }
  - { offsetInCU: 0x10122, offset: 0x10122, size: 0x8, addend: 0x0, symName: __ZNSt3__117__compressed_pairINS_12basic_stringIcNS_11char_traitsIcEENS_9allocatorIcEEE5__repES5_EC1B8ue170006INS_18__default_init_tagERKS5_EEOT_OT0_, symObjAddr: 0x6A10, symBinAddr: 0x100009AE8, symSize: 0x3C }
  - { offsetInCU: 0x10178, offset: 0x10178, size: 0x8, addend: 0x0, symName: __ZNKSt3__112basic_stringIcNS_11char_traitsIcEENS_9allocatorIcEEE8max_sizeB8ue170006Ev, symObjAddr: 0x6A4C, symBinAddr: 0x100009B24, symSize: 0xAC }
  - { offsetInCU: 0x101C8, offset: 0x101C8, size: 0x8, addend: 0x0, symName: __ZNKSt3__112basic_stringIcNS_11char_traitsIcEENS_9allocatorIcEEE20__throw_length_errorB8ue170006Ev, symObjAddr: 0x6AF8, symBinAddr: 0x100009BD0, symSize: 0x1C }
  - { offsetInCU: 0x101ED, offset: 0x101ED, size: 0x8, addend: 0x0, symName: __ZNSt3__112basic_stringIcNS_11char_traitsIcEENS_9allocatorIcEEE13__fits_in_ssoB8ue170006Em, symObjAddr: 0x6B14, symBinAddr: 0x100009BEC, symSize: 0x20 }
  - { offsetInCU: 0x10210, offset: 0x10210, size: 0x8, addend: 0x0, symName: __ZNSt3__112basic_stringIcNS_11char_traitsIcEENS_9allocatorIcEEE16__set_short_sizeB8ue170006Em, symObjAddr: 0x6B34, symBinAddr: 0x100009C0C, symSize: 0x78 }
  - { offsetInCU: 0x10244, offset: 0x10244, size: 0x8, addend: 0x0, symName: __ZNSt3__112basic_stringIcNS_11char_traitsIcEENS_9allocatorIcEEE11__recommendB8ue170006Em, symObjAddr: 0x6BAC, symBinAddr: 0x100009C84, symSize: 0x84 }
  - { offsetInCU: 0x10277, offset: 0x10277, size: 0x8, addend: 0x0, symName: __ZNSt3__116allocator_traitsINS_9allocatorIcEEE8allocateB8ue170006ERS2_m, symObjAddr: 0x6C30, symBinAddr: 0x100009D08, symSize: 0x2C }
  - { offsetInCU: 0x102A9, offset: 0x102A9, size: 0x8, addend: 0x0, symName: __ZNSt3__112basic_stringIcNS_11char_traitsIcEENS_9allocatorIcEEE7__allocB8ue170006Ev, symObjAddr: 0x6C5C, symBinAddr: 0x100009D34, symSize: 0x24 }
  - { offsetInCU: 0x102CE, offset: 0x102CE, size: 0x8, addend: 0x0, symName: __ZNSt3__112basic_stringIcNS_11char_traitsIcEENS_9allocatorIcEEE16__begin_lifetimeB8ue170006EPcm, symObjAddr: 0x6C80, symBinAddr: 0x100009D58, symSize: 0x14 }
  - { offsetInCU: 0x10300, offset: 0x10300, size: 0x8, addend: 0x0, symName: __ZNSt3__112basic_stringIcNS_11char_traitsIcEENS_9allocatorIcEEE14__set_long_capB8ue170006Em, symObjAddr: 0x6C94, symBinAddr: 0x100009D6C, symSize: 0x70 }
  - { offsetInCU: 0x10333, offset: 0x10333, size: 0x8, addend: 0x0, symName: __ZNSt3__112basic_stringIcNS_11char_traitsIcEENS_9allocatorIcEEE18__set_long_pointerB8ue170006EPc, symObjAddr: 0x6D04, symBinAddr: 0x100009DDC, symSize: 0x38 }
  - { offsetInCU: 0x10366, offset: 0x10366, size: 0x8, addend: 0x0, symName: __ZNSt3__112basic_stringIcNS_11char_traitsIcEENS_9allocatorIcEEE15__set_long_sizeB8ue170006Em, symObjAddr: 0x6D3C, symBinAddr: 0x100009E14, symSize: 0x38 }
  - { offsetInCU: 0x1039A, offset: 0x1039A, size: 0x8, addend: 0x0, symName: __ZNSt3__117__compressed_pairINS_12basic_stringIcNS_11char_traitsIcEENS_9allocatorIcEEE5__repES5_EC2B8ue170006INS_18__default_init_tagERKS5_EEOT_OT0_, symObjAddr: 0x6D74, symBinAddr: 0x100009E4C, symSize: 0x40 }
  - { offsetInCU: 0x103F1, offset: 0x103F1, size: 0x8, addend: 0x0, symName: __ZNSt3__122__compressed_pair_elemINS_9allocatorIcEELi1ELb1EEC2B8ue170006IRKS2_vEEOT_, symObjAddr: 0x6DB4, symBinAddr: 0x100009E8C, symSize: 0x18 }
  - { offsetInCU: 0x10432, offset: 0x10432, size: 0x8, addend: 0x0, symName: __ZNSt3__116allocator_traitsINS_9allocatorIcEEE8max_sizeB8ue170006IS2_vEEmRKS2_, symObjAddr: 0x6DCC, symBinAddr: 0x100009EA4, symSize: 0x24 }
  - { offsetInCU: 0x10460, offset: 0x10460, size: 0x8, addend: 0x0, symName: __ZNSt3__114numeric_limitsImE3maxB8ue170006Ev, symObjAddr: 0x6DF0, symBinAddr: 0x100009EC8, symSize: 0x14 }
  - { offsetInCU: 0x10474, offset: 0x10474, size: 0x8, addend: 0x0, symName: __ZNKSt3__19allocatorIcE8max_sizeB8ue170006Ev, symObjAddr: 0x6E04, symBinAddr: 0x100009EDC, symSize: 0x14 }
  - { offsetInCU: 0x10499, offset: 0x10499, size: 0x8, addend: 0x0, symName: __ZNSt3__123__libcpp_numeric_limitsImLb1EE3maxB8ue170006Ev, symObjAddr: 0x6E18, symBinAddr: 0x100009EF0, symSize: 0x8 }
  - { offsetInCU: 0x104AD, offset: 0x104AD, size: 0x8, addend: 0x0, symName: __ZNSt3__112basic_stringIcNS_11char_traitsIcEENS_9allocatorIcEEE10__align_itB8ue170006ILm16EEEmm, symObjAddr: 0x6E20, symBinAddr: 0x100009EF8, symSize: 0x1C }
  - { offsetInCU: 0x104DA, offset: 0x104DA, size: 0x8, addend: 0x0, symName: __ZNSt3__19allocatorIcE8allocateB8ue170006Em, symObjAddr: 0x6E3C, symBinAddr: 0x100009F14, symSize: 0x58 }
  - { offsetInCU: 0x1050C, offset: 0x1050C, size: 0x8, addend: 0x0, symName: __ZNSt3__117__compressed_pairINS_12basic_stringIcNS_11char_traitsIcEENS_9allocatorIcEEE5__repES5_E6secondB8ue170006Ev, symObjAddr: 0x6E94, symBinAddr: 0x100009F6C, symSize: 0x24 }
  - { offsetInCU: 0x10531, offset: 0x10531, size: 0x8, addend: 0x0, symName: __ZNSt3__122__compressed_pair_elemINS_9allocatorIcEELi1ELb1EE5__getB8ue170006Ev, symObjAddr: 0x6EB8, symBinAddr: 0x100009F90, symSize: 0x14 }
  - { offsetInCU: 0x10578, offset: 0x10578, size: 0x8, addend: 0x0, symName: __ZNKSt3__114__copy_trivialclB8ue170006IKccLi0EEENS_4pairIPT_PT0_EES5_S5_S7_, symObjAddr: 0x70EC, symBinAddr: 0x10000A1C4, symSize: 0x48 }
  - { offsetInCU: 0x105FD, offset: 0x105FD, size: 0x8, addend: 0x0, symName: __ZNSt3__14pairIPKcS2_EC1B8ue170006IS2_S2_LPv0EEEOT_OT0_, symObjAddr: 0x7254, symBinAddr: 0x10000A32C, symSize: 0x3C }
  - { offsetInCU: 0x1065A, offset: 0x1065A, size: 0x8, addend: 0x0, symName: __ZNSt3__14pairIPKcS2_EC2B8ue170006IS2_S2_LPv0EEEOT_OT0_, symObjAddr: 0x7290, symBinAddr: 0x10000A368, symSize: 0x34 }
  - { offsetInCU: 0x106B7, offset: 0x106B7, size: 0x8, addend: 0x0, symName: __ZNSt3__118__unwrap_iter_implIPKcLb1EE8__unwrapB8ue170006ES2_, symObjAddr: 0x72C4, symBinAddr: 0x10000A39C, symSize: 0x24 }
  - { offsetInCU: 0x106E4, offset: 0x106E4, size: 0x8, addend: 0x0, symName: __ZNSt3__14pairIPKcPcEC1B8ue170006IRS2_S3_LPv0EEEOT_OT0_, symObjAddr: 0x73FC, symBinAddr: 0x10000A4D4, symSize: 0x3C }
  - { offsetInCU: 0x10741, offset: 0x10741, size: 0x8, addend: 0x0, symName: __ZNSt3__14pairIPKcPcEC2B8ue170006IRS2_S3_LPv0EEEOT_OT0_, symObjAddr: 0x7438, symBinAddr: 0x10000A510, symSize: 0x34 }
  - { offsetInCU: 0x1079E, offset: 0x1079E, size: 0x8, addend: 0x0, symName: __ZNSt3__118__unwrap_iter_implIPcLb1EE8__unwrapB8ue170006ES1_, symObjAddr: 0x746C, symBinAddr: 0x10000A544, symSize: 0x24 }
  - { offsetInCU: 0x107C1, offset: 0x107C1, size: 0x8, addend: 0x0, symName: __ZNSt3__14pairIPKcPcEC1B8ue170006IS2_S3_LPv0EEEOT_OT0_, symObjAddr: 0x7490, symBinAddr: 0x10000A568, symSize: 0x3C }
  - { offsetInCU: 0x1081E, offset: 0x1081E, size: 0x8, addend: 0x0, symName: __ZNSt3__14pairIPKcPcEC2B8ue170006IS2_S3_LPv0EEEOT_OT0_, symObjAddr: 0x74CC, symBinAddr: 0x10000A5A4, symSize: 0x34 }
  - { offsetInCU: 0x1087B, offset: 0x1087B, size: 0x8, addend: 0x0, symName: __ZNSt3__118__unwrap_iter_implIPKcLb1EE8__rewrapB8ue170006ES2_S2_, symObjAddr: 0x753C, symBinAddr: 0x10000A614, symSize: 0x48 }
  - { offsetInCU: 0x108AC, offset: 0x108AC, size: 0x8, addend: 0x0, symName: __ZNSt3__118__unwrap_iter_implIPcLb1EE8__rewrapB8ue170006ES1_S1_, symObjAddr: 0x7584, symBinAddr: 0x10000A65C, symSize: 0x48 }
  - { offsetInCU: 0x108DC, offset: 0x108DC, size: 0x8, addend: 0x0, symName: __ZNSt3__112basic_stringIcNS_11char_traitsIcEENS_9allocatorIcEEE13__move_assignB8ue170006ERS5_NS_17integral_constantIbLb1EEE, symObjAddr: 0x7688, symBinAddr: 0x10000A760, symSize: 0xC8 }
  - { offsetInCU: 0x1091D, offset: 0x1091D, size: 0x8, addend: 0x0, symName: __ZNSt3__116allocator_traitsINS_9allocatorIcEEE10deallocateB8ue170006ERS2_Pcm, symObjAddr: 0x7750, symBinAddr: 0x10000A828, symSize: 0x34 }
  - { offsetInCU: 0x1095E, offset: 0x1095E, size: 0x8, addend: 0x0, symName: __ZNKSt3__112basic_stringIcNS_11char_traitsIcEENS_9allocatorIcEEE14__get_long_capB8ue170006Ev, symObjAddr: 0x7784, symBinAddr: 0x10000A85C, symSize: 0x30 }
  - { offsetInCU: 0x10982, offset: 0x10982, size: 0x8, addend: 0x0, symName: __ZNSt3__112basic_stringIcNS_11char_traitsIcEENS_9allocatorIcEEE19__move_assign_allocB8ue170006ERS5_, symObjAddr: 0x77B4, symBinAddr: 0x10000A88C, symSize: 0x2C }
  - { offsetInCU: 0x109B6, offset: 0x109B6, size: 0x8, addend: 0x0, symName: __ZNSt3__111char_traitsIcE6assignB8ue170006ERcRKc, symObjAddr: 0x77E0, symBinAddr: 0x10000A8B8, symSize: 0x24 }
  - { offsetInCU: 0x109E6, offset: 0x109E6, size: 0x8, addend: 0x0, symName: __ZNSt3__19allocatorIcE10deallocateB8ue170006EPcm, symObjAddr: 0x7804, symBinAddr: 0x10000A8DC, symSize: 0x40 }
  - { offsetInCU: 0x10A26, offset: 0x10A26, size: 0x8, addend: 0x0, symName: __ZNSt3__112basic_stringIcNS_11char_traitsIcEENS_9allocatorIcEEE19__move_assign_allocB8ue170006ERS5_NS_17integral_constantIbLb1EEE, symObjAddr: 0x7844, symBinAddr: 0x10000A91C, symSize: 0x38 }
  - { offsetInCU: 0x10A6F, offset: 0x10A6F, size: 0x8, addend: 0x0, symName: '__ZZ4mainENK3$_1clERK10ClientInfo', symObjAddr: 0x787C, symBinAddr: 0x10000A954, symSize: 0x30 }
  - { offsetInCU: 0x10AA6, offset: 0x10AA6, size: 0x8, addend: 0x0, symName: __ZNKSt3__16vectorI10ClientInfoNS_9allocatorIS1_EEE6cbeginB8ue170006Ev, symObjAddr: 0x78F4, symBinAddr: 0x10000A9CC, symSize: 0x2C }
  - { offsetInCU: 0x10ACA, offset: 0x10ACA, size: 0x8, addend: 0x0, symName: __ZNSt3__16vectorI10ClientInfoNS_9allocatorIS1_EEE17__destruct_at_endB8ue170006EPS1_, symObjAddr: 0x7920, symBinAddr: 0x10000A9F8, symSize: 0x4C }
  - { offsetInCU: 0x10B0D, offset: 0x10B0D, size: 0x8, addend: 0x0, symName: __ZNKSt3__111__wrap_iterIPK10ClientInfoE4baseB8ue170006Ev, symObjAddr: 0x79AC, symBinAddr: 0x10000AA84, symSize: 0x18 }
  - { offsetInCU: 0x10B31, offset: 0x10B31, size: 0x8, addend: 0x0, symName: __ZNKSt3__16vectorI10ClientInfoNS_9allocatorIS1_EEE5beginB8ue170006Ev, symObjAddr: 0x79C4, symBinAddr: 0x10000AA9C, symSize: 0x30 }
  - { offsetInCU: 0x10B57, offset: 0x10B57, size: 0x8, addend: 0x0, symName: __ZNKSt3__16vectorI10ClientInfoNS_9allocatorIS1_EEE11__make_iterB8ue170006EPKS1_, symObjAddr: 0x79F4, symBinAddr: 0x10000AACC, symSize: 0x30 }
  - { offsetInCU: 0x10B8B, offset: 0x10B8B, size: 0x8, addend: 0x0, symName: __ZNSt3__111__wrap_iterIPK10ClientInfoEC1B8ue170006ES3_, symObjAddr: 0x7A24, symBinAddr: 0x10000AAFC, symSize: 0x34 }
  - { offsetInCU: 0x10BC2, offset: 0x10BC2, size: 0x8, addend: 0x0, symName: __ZNSt3__111__wrap_iterIPK10ClientInfoEC2B8ue170006ES3_, symObjAddr: 0x7A58, symBinAddr: 0x10000AB30, symSize: 0x20 }
  - { offsetInCU: 0x10BF8, offset: 0x10BF8, size: 0x8, addend: 0x0, symName: __ZNKSt3__16vectorI10ClientInfoNS_9allocatorIS1_EEE17__annotate_shrinkB8ue170006Em, symObjAddr: 0x7A78, symBinAddr: 0x10000AB50, symSize: 0xB4 }
  - { offsetInCU: 0x10C44, offset: 0x10C44, size: 0x8, addend: 0x0, symName: __ZNKSt3__111__move_loopINS_17_ClassicAlgPolicyEEclB8ue170006IP10ClientInfoS5_S5_EENS_4pairIT_T1_EES7_T0_S8_, symObjAddr: 0x7CC8, symBinAddr: 0x10000ADA0, symSize: 0x90 }
  - { offsetInCU: 0x10CAE, offset: 0x10CAE, size: 0x8, addend: 0x0, symName: __ZNSt3__18_IterOpsINS_17_ClassicAlgPolicyEE11__iter_moveB8ue170006IRP10ClientInfoEENS_9enable_ifIXsr12is_referenceIDTdeclsr3stdE7declvalIRT_EEEEE5valueEDTclsr3stdE4movedeclsr3stdE7declvalIS9_EEEEE4typeEOS8_, symObjAddr: 0x7E1C, symBinAddr: 0x10000AEF4, symSize: 0x28 }
  - { offsetInCU: 0x10CDA, offset: 0x10CDA, size: 0x8, addend: 0x0, symName: __ZN10ClientInfoaSEOS_, symObjAddr: 0x7E44, symBinAddr: 0x10000AF1C, symSize: 0x48 }
  - { offsetInCU: 0x10D0A, offset: 0x10D0A, size: 0x8, addend: 0x0, symName: __ZNSt3__18_IterOpsINS_17_ClassicAlgPolicyEE25__validate_iter_referenceB8ue170006IRP10ClientInfoEEvv, symObjAddr: 0x7E8C, symBinAddr: 0x10000AF64, symSize: 0x4 }
  - { offsetInCU: 0x10D28, offset: 0x10D28, size: 0x8, addend: 0x0, symName: __ZNSt3__118__unwrap_iter_implIP10ClientInfoLb1EE8__unwrapB8ue170006ES2_, symObjAddr: 0x7E90, symBinAddr: 0x10000AF68, symSize: 0x24 }
  - { offsetInCU: 0x10D50, offset: 0x10D50, size: 0x8, addend: 0x0, symName: __ZNSt3__14pairIP10ClientInfoS2_EC1B8ue170006IS2_S2_LPv0EEEOT_OT0_, symObjAddr: 0x7EB4, symBinAddr: 0x10000AF8C, symSize: 0x3C }
  - { offsetInCU: 0x10DAD, offset: 0x10DAD, size: 0x8, addend: 0x0, symName: __ZNSt3__14pairIP10ClientInfoS2_EC2B8ue170006IS2_S2_LPv0EEEOT_OT0_, symObjAddr: 0x7EF0, symBinAddr: 0x10000AFC8, symSize: 0x34 }
  - { offsetInCU: 0x10E0A, offset: 0x10E0A, size: 0x8, addend: 0x0, symName: __ZNSt3__118__unwrap_iter_implIP10ClientInfoLb1EE8__rewrapB8ue170006ES2_S2_, symObjAddr: 0x7F24, symBinAddr: 0x10000AFFC, symSize: 0x50 }
  - { offsetInCU: 0x10E3B, offset: 0x10E3B, size: 0x8, addend: 0x0, symName: __ZNSt3__111__wrap_iterIPK10ClientInfoEC2B8ue170006IPS1_EERKNS0_IT_EEPNS_9enable_ifIXsr14is_convertibleIS7_S3_EE5valueEvE4typeE, symObjAddr: 0x7F74, symBinAddr: 0x10000B04C, symSize: 0x40 }
...
